	.file	"handlers.c"
	.intel_syntax noprefix
# GNU C11 (Ubuntu 7.5.0-3ubuntu1~18.04) version 7.5.0 (x86_64-linux-gnu)
#	compiled by GNU C version 7.5.0, GMP version 6.1.2, MPFR version 4.0.1, MPC version 1.1.0, isl version isl-0.19-GMP

# GGC heuristics: --param ggc-min-expand=100 --param ggc-min-heapsize=131072
# options passed:  -I ../../../../../include/public/
# -imultiarch x86_64-linux-gnu handlers.c -m64 -masm=intel
# -mgeneral-regs-only -march=nehalem -Os -Wall -Wextra
# -Wno-unused-parameter -fverbose-asm -ffreestanding -fno-jump-tables -fPIE
# -fomit-frame-pointer -fno-stack-protector -Wformat-security
# options enabled:  -fPIC -fPIE -faggressive-loop-optimizations
# -falign-labels -fasynchronous-unwind-tables -fauto-inc-dec
# -fbranch-count-reg -fcaller-saves -fchkp-check-incomplete-type
# -fchkp-check-read -fchkp-check-write -fchkp-instrument-calls
# -fchkp-narrow-bounds -fchkp-optimize -fchkp-store-bounds
# -fchkp-use-static-bounds -fchkp-use-static-const-bounds
# -fchkp-use-wrappers -fcode-hoisting -fcombine-stack-adjustments -fcommon
# -fcompare-elim -fcprop-registers -fcrossjumping -fcse-follow-jumps
# -fdefer-pop -fdelete-null-pointer-checks -fdevirtualize
# -fdevirtualize-speculatively -fdwarf2-cfi-asm -fearly-inlining
# -feliminate-unused-debug-types -fexpensive-optimizations
# -fforward-propagate -ffp-int-builtin-inexact -ffunction-cse -fgcse
# -fgcse-lm -fgnu-runtime -fgnu-unique -fguess-branch-probability
# -fhoist-adjacent-loads -fident -fif-conversion -fif-conversion2
# -findirect-inlining -finline -finline-atomics -finline-functions
# -finline-functions-called-once -finline-small-functions -fipa-bit-cp
# -fipa-cp -fipa-icf -fipa-icf-functions -fipa-icf-variables -fipa-profile
# -fipa-pure-const -fipa-ra -fipa-reference -fipa-sra -fipa-vrp
# -fira-hoist-pressure -fira-share-save-slots -fira-share-spill-slots
# -fisolate-erroneous-paths-dereference -fivopts -fkeep-static-consts
# -fleading-underscore -flifetime-dse -flra-remat -flto-odr-type-merging
# -fmath-errno -fmerge-constants -fmerge-debug-strings
# -fmove-loop-invariants -fomit-frame-pointer -foptimize-sibling-calls
# -fpartial-inlining -fpeephole -fpeephole2 -fplt -fprefetch-loop-arrays
# -free -freg-struct-return -freorder-blocks -freorder-functions
# -frerun-cse-after-loop -fsched-critical-path-heuristic
# -fsched-dep-count-heuristic -fsched-group-heuristic -fsched-interblock
# -fsched-last-insn-heuristic -fsched-rank-heuristic -fsched-spec
# -fsched-spec-insn-heuristic -fsched-stalled-insns-dep -fschedule-fusion
# -fschedule-insns2 -fsemantic-interposition -fshow-column -fshrink-wrap
# -fshrink-wrap-separate -fsigned-zeros -fsplit-ivs-in-unroller
# -fsplit-wide-types -fssa-backprop -fssa-phiopt -fstdarg-opt
# -fstore-merging -fstrict-aliasing -fstrict-overflow
# -fstrict-volatile-bitfields -fsync-libcalls -fthread-jumps
# -ftoplevel-reorder -ftrapping-math -ftree-bit-ccp -ftree-builtin-call-dce
# -ftree-ccp -ftree-ch -ftree-coalesce-vars -ftree-copy-prop -ftree-cselim
# -ftree-dce -ftree-dominator-opts -ftree-dse -ftree-forwprop -ftree-fre
# -ftree-loop-if-convert -ftree-loop-im -ftree-loop-ivcanon
# -ftree-loop-optimize -ftree-parallelize-loops= -ftree-phiprop -ftree-pre
# -ftree-pta -ftree-reassoc -ftree-scev-cprop -ftree-sink -ftree-slsr
# -ftree-sra -ftree-switch-conversion -ftree-tail-merge -ftree-ter
# -ftree-vrp -funit-at-a-time -funwind-tables -fverbose-asm
# -fzero-initialized-in-bss -m128bit-long-double -m64 -malign-stringops
# -mavx256-split-unaligned-load -mavx256-split-unaligned-store -mcx16
# -mfp-ret-in-387 -mfxsr -mgeneral-regs-only -mglibc -mieee-fp
# -mlong-double-80 -mno-fancy-math-387 -mno-sse4 -mpopcnt -mpush-args
# -mred-zone -msahf -mstv -mtls-direct-seg-refs -mvzeroupper

	.text
	.align 16
	.type	vmcall, @function
vmcall:
.LFB1:
	.cfi_startproc
	mov	eax, edi	#, id
	push	rdi	#
	.cfi_def_cfa_offset 16
	.cfi_offset 5, -16
	push	rsi	#
	.cfi_def_cfa_offset 24
	.cfi_offset 4, -24
	push	rbx	#
	.cfi_def_cfa_offset 32
	.cfi_offset 3, -32
	mov	rbx, rax	#,
# handlers.c:294:     return  (hypercall_info.Detours[id].EnableOptions == -1ULL)
	inc	rax	# tmp95
	imul	rax, rax, 96	# tmp96, tmp95,
# handlers.c:301: {
	push	rcx	#
	.cfi_def_cfa_offset 40
	.cfi_offset 2, -40
	push	rdx	#
	.cfi_def_cfa_offset 48
	.cfi_offset 1, -48
# handlers.c:294:     return  (hypercall_info.Detours[id].EnableOptions == -1ULL)
	lea	rdx, hypercall_info[rip]	# tmp93,
	mov	rax, QWORD PTR 8[rdx+rax]	# _8, hypercall_info.Detours[id_5(D)].EnableOptions
# handlers.c:295:         || ((hypercall_info.Detours[id].EnableOptions & hypercall_info.ProtectionOptions) != 0);
	cmp	rax, -1	# _8,
	je	.L2	#,
# handlers.c:303:         return 0;
	xor	esi, esi	# <retval>
# handlers.c:302:     if (!is_detour_enabled(id)) {
	test	QWORD PTR hypercall_info[rip], rax	# hypercall_info.ProtectionOptions, _8
	je	.L1	#,
.L2:
# handlers.c:308:     asm volatile("vmcall" : "+S" (_out_param), "+a"(_out_value) : "D"(24), "b"(id): );
	xor	esi, esi	# _out_param
	mov	eax, 34	# _out_value,
	mov	edi, 24	# tmp103,
#APP
# 308 "handlers.c" 1
	vmcall
# 0 "" 2
# handlers.c:311:     volatile struct inactive_task_frame _reserved = { 0 };
#NO_APP
	lea	rdi, -56[rsp]	# tmp106,
	mov	ecx, 14	# tmp108,
	xor	eax, eax	# tmp107
	rep stosd
.L1:
# handlers.c:315: }
	pop	rdx	#
	.cfi_def_cfa_offset 40
	mov	rax, rsi	#, <retval>
	pop	rcx	#
	.cfi_def_cfa_offset 32
	pop	rbx	#
	.cfi_def_cfa_offset 24
	pop	rsi	#
	.cfi_def_cfa_offset 16
	pop	rdi	#
	.cfi_def_cfa_offset 8
	ret
	.cfi_endproc
.LFE1:
	.size	vmcall, .-vmcall
	.align 16
	.globl	d_path
	.type	d_path, @function
d_path:
.LFB2:
	.cfi_startproc
	push	r11	#
	.cfi_def_cfa_offset 16
	.cfi_offset 11, -16
	push	r10	#
	.cfi_def_cfa_offset 24
	.cfi_offset 10, -24
	push	r9	#
	.cfi_def_cfa_offset 32
	.cfi_offset 9, -32
	push	r8	#
	.cfi_def_cfa_offset 40
	.cfi_offset 8, -40
	push	rdi	#
	.cfi_def_cfa_offset 48
	.cfi_offset 5, -48
	push	rsi	#
	.cfi_def_cfa_offset 56
	.cfi_offset 4, -56
	push	rcx	#
	.cfi_def_cfa_offset 64
	.cfi_offset 2, -64
	push	rdx	#
	.cfi_def_cfa_offset 72
	.cfi_offset 1, -72
	sub	rsp, 8	#,
	.cfi_def_cfa_offset 80
# handlers.c:321:     void *path = (void *)((unsigned long)hypercall_info.OsSpecificFields.PercpuMemPtr + (current_cpu * PAGE_SIZE));
	mov	esi, DWORD PTR hypercall_info[rip+11236]	# hypercall_info.OsSpecificFields.CurrentCpuOffset, hypercall_info.OsSpecificFields.CurrentCpuOffset
#APP
# 321 "handlers.c" 1
	mov esi, gs:[rsi]	# ret, hypercall_info.OsSpecificFields.CurrentCpuOffset
# 0 "" 2
# handlers.c:323:     return hypercall_info.OsSpecificFields.DPathFnPtr(path_struct, path, PAGE_SIZE);
#NO_APP
	mov	edx, 4096	#,
# handlers.c:321:     void *path = (void *)((unsigned long)hypercall_info.OsSpecificFields.PercpuMemPtr + (current_cpu * PAGE_SIZE));
	sal	esi, 12	#,
	add	rsi, QWORD PTR hypercall_info[rip+11240]	# path, hypercall_info.OsSpecificFields.PercpuMemPtr
# handlers.c:323:     return hypercall_info.OsSpecificFields.DPathFnPtr(path_struct, path, PAGE_SIZE);
	call	[QWORD PTR hypercall_info[rip+11248]]	# hypercall_info.OsSpecificFields.DPathFnPtr
# handlers.c:324: }
	add	rsp, 8	#,
	.cfi_def_cfa_offset 72
	pop	rdx	#
	.cfi_def_cfa_offset 64
	pop	rcx	#
	.cfi_def_cfa_offset 56
	pop	rsi	#
	.cfi_def_cfa_offset 48
	pop	rdi	#
	.cfi_def_cfa_offset 40
	pop	r8	#
	.cfi_def_cfa_offset 32
	pop	r9	#
	.cfi_def_cfa_offset 24
	pop	r10	#
	.cfi_def_cfa_offset 16
	pop	r11	#
	.cfi_def_cfa_offset 8
	ret
	.cfi_endproc
.LFE2:
	.size	d_path, .-d_path
	.align 16
	.globl	_memcpy
	.type	_memcpy, @function
_memcpy:
.LFB3:
	.cfi_startproc
	push	rdi	#
	.cfi_def_cfa_offset 16
	.cfi_offset 5, -16
	mov	rax, rdi	# dest, dest
	push	rsi	#
	.cfi_def_cfa_offset 24
	.cfi_offset 4, -24
	push	rcx	#
	.cfi_def_cfa_offset 32
	.cfi_offset 2, -32
# handlers.c:333:     while (len--)
	xor	ecx, ecx	# ivtmp.481
# handlers.c:329: {
	push	rdx	#
	.cfi_def_cfa_offset 40
	.cfi_offset 1, -40
.L14:
# handlers.c:333:     while (len--)
	cmp	rdx, rcx	# len, ivtmp.481
	je	.L17	#,
# handlers.c:335:         *d++ = *s++;
	mov	dil, BYTE PTR [rsi+rcx]	# _1, MEM[base: src_7(D), index: ivtmp.481_14, offset: 0B]
	mov	BYTE PTR [rax+rcx], dil	# MEM[base: dest_6(D), index: ivtmp.481_14, offset: 0B], _1
	inc	rcx	# ivtmp.481
	jmp	.L14	#
.L17:
# handlers.c:339: }
	pop	rdx	#
	.cfi_def_cfa_offset 32
	pop	rcx	#
	.cfi_def_cfa_offset 24
	pop	rsi	#
	.cfi_def_cfa_offset 16
	pop	rdi	#
	.cfi_def_cfa_offset 8
	ret
	.cfi_endproc
.LFE3:
	.size	_memcpy, .-_memcpy
	.align 16
	.globl	store_regs
	.type	store_regs, @function
store_regs:
.LFB4:
	.cfi_startproc
	push	rdi	#
	.cfi_def_cfa_offset 16
	.cfi_offset 5, -16
	push	rsi	#
	.cfi_def_cfa_offset 24
	.cfi_offset 4, -24
	push	rdx	#
	.cfi_def_cfa_offset 32
	.cfi_offset 1, -32
	push	rax	#
	.cfi_def_cfa_offset 40
	.cfi_offset 0, -40
	sub	rsp, 224	#,
	.cfi_def_cfa_offset 264
# handlers.c:347:     regs.Rax = __read_reg("rax");
#APP
# 347 "handlers.c" 1
	mov rax, rax	# val
	
# 0 "" 2
#NO_APP
	mov	QWORD PTR [rsp], rax	# regs.Rax, val
# handlers.c:348:     regs.Rcx = __read_reg("rcx");
#APP
# 348 "handlers.c" 1
	mov rax, rcx	# val
	
# 0 "" 2
#NO_APP
	mov	QWORD PTR 8[rsp], rax	# regs.Rcx, val
# handlers.c:349:     regs.Rdx = __read_reg("rdx");
#APP
# 349 "handlers.c" 1
	mov rax, rdx	# val
	
# 0 "" 2
#NO_APP
	mov	QWORD PTR 16[rsp], rax	# regs.Rdx, val
# handlers.c:350:     regs.Rbx = __read_reg("rbx");
#APP
# 350 "handlers.c" 1
	mov rax, rbx	# val
	
# 0 "" 2
#NO_APP
	mov	QWORD PTR 24[rsp], rax	# regs.Rbx, val
# handlers.c:351:     regs.Rsp = __read_reg("rsp");
#APP
# 351 "handlers.c" 1
	mov rax, rsp	# val
	
# 0 "" 2
#NO_APP
	mov	QWORD PTR 32[rsp], rax	# regs.Rsp, val
# handlers.c:352:     regs.Rbp = __read_reg("rbp");
#APP
# 352 "handlers.c" 1
	mov rax, rbp	# val
	
# 0 "" 2
#NO_APP
	mov	QWORD PTR 40[rsp], rax	# regs.Rbp, val
# handlers.c:353:     regs.Rsi = __read_reg("rsi");
#APP
# 353 "handlers.c" 1
	mov rax, rsi	# val
	
# 0 "" 2
#NO_APP
	mov	QWORD PTR 48[rsp], rax	# regs.Rsi, val
# handlers.c:354:     regs.Rdi = __read_reg("rdi");
#APP
# 354 "handlers.c" 1
	mov rax, rdi	# val
	
# 0 "" 2
#NO_APP
	mov	QWORD PTR 56[rsp], rax	# regs.Rdi, val
# handlers.c:355:     regs.R8 = __read_reg("r8");
#APP
# 355 "handlers.c" 1
	mov rax, r8	# val
	
# 0 "" 2
#NO_APP
	mov	QWORD PTR 64[rsp], rax	# regs.R8, val
# handlers.c:356:     regs.R9 = __read_reg("r9");
#APP
# 356 "handlers.c" 1
	mov rax, r9	# val
	
# 0 "" 2
#NO_APP
	mov	QWORD PTR 72[rsp], rax	# regs.R9, val
# handlers.c:357:     regs.R10 = __read_reg("r10");
#APP
# 357 "handlers.c" 1
	mov rax, r10	# val
	
# 0 "" 2
#NO_APP
	mov	QWORD PTR 80[rsp], rax	# regs.R10, val
# handlers.c:358:     regs.R11 = __read_reg("r11");
#APP
# 358 "handlers.c" 1
	mov rax, r11	# val
	
# 0 "" 2
#NO_APP
	mov	QWORD PTR 88[rsp], rax	# regs.R11, val
# handlers.c:359:     regs.R12 = __read_reg("r12");
#APP
# 359 "handlers.c" 1
	mov rax, r12	# val
	
# 0 "" 2
#NO_APP
	mov	QWORD PTR 96[rsp], rax	# regs.R12, val
# handlers.c:360:     regs.R13 = __read_reg("r13");
#APP
# 360 "handlers.c" 1
	mov rax, r13	# val
	
# 0 "" 2
#NO_APP
	mov	QWORD PTR 104[rsp], rax	# regs.R13, val
# handlers.c:361:     regs.R14 = __read_reg("r14");
#APP
# 361 "handlers.c" 1
	mov rax, r14	# val
	
# 0 "" 2
#NO_APP
	mov	QWORD PTR 112[rsp], rax	# regs.R14, val
# handlers.c:362:     regs.R15 = __read_reg("r15");
#APP
# 362 "handlers.c" 1
	mov rax, r15	# val
	
# 0 "" 2
# handlers.c:364:     void *dst = (void *)((unsigned long)hypercall_info.OsSpecificFields.PercpuMemPtr + (current_cpu * PAGE_SIZE));
#NO_APP
	mov	edi, DWORD PTR hypercall_info[rip+11236]	# hypercall_info.OsSpecificFields.CurrentCpuOffset, hypercall_info.OsSpecificFields.CurrentCpuOffset
# handlers.c:362:     regs.R15 = __read_reg("r15");
	mov	QWORD PTR 120[rsp], rax	# regs.R15, val
# handlers.c:364:     void *dst = (void *)((unsigned long)hypercall_info.OsSpecificFields.PercpuMemPtr + (current_cpu * PAGE_SIZE));
#APP
# 364 "handlers.c" 1
	mov edi, gs:[rdi]	# ret, hypercall_info.OsSpecificFields.CurrentCpuOffset
# 0 "" 2
#NO_APP
	sal	edi, 12	#,
	add	rdi, QWORD PTR hypercall_info[rip+11240]	# dst, hypercall_info.OsSpecificFields.PercpuMemPtr
# handlers.c:365:     _memcpy(dst, &regs, sizeof(regs));
	mov	rsi, rsp	# tmp131,
	mov	edx, 224	#,
	call	_memcpy	#
# handlers.c:366: }
	add	rsp, 224	#,
	.cfi_def_cfa_offset 40
	pop	rax	#
	.cfi_def_cfa_offset 32
	pop	rdx	#
	.cfi_def_cfa_offset 24
	pop	rsi	#
	.cfi_def_cfa_offset 16
	pop	rdi	#
	.cfi_def_cfa_offset 8
	ret
	.cfi_endproc
.LFE4:
	.size	store_regs, .-store_regs
	.align 16
	.globl	commit_creds
	.type	commit_creds, @function
commit_creds:
.LFB5:
	.cfi_startproc
	push	r9	#
	.cfi_def_cfa_offset 16
	.cfi_offset 9, -16
	push	r8	#
	.cfi_def_cfa_offset 24
	.cfi_offset 8, -24
# handlers.c:373:     void *current = current_task;
	mov	r8d, DWORD PTR hypercall_info[rip+11232]	# hypercall_info.OsSpecificFields.CurrentTaskOffset, hypercall_info.OsSpecificFields.CurrentTaskOffset
# handlers.c:372: {
	push	rdi	#
	.cfi_def_cfa_offset 32
	.cfi_offset 5, -32
	push	rdx	#
	.cfi_def_cfa_offset 40
	.cfi_offset 1, -40
	push	rax	#
	.cfi_def_cfa_offset 48
	.cfi_offset 0, -48
# handlers.c:373:     void *current = current_task;
#APP
# 373 "handlers.c" 1
	mov r8, gs:[r8]	# ret, hypercall_info.OsSpecificFields.CurrentTaskOffset
# 0 "" 2
# handlers.c:375:     if (!hypercall_info.OsSpecificFields.Info.CredAltered) {
#NO_APP
	cmp	DWORD PTR hypercall_info[rip+11152], 0	# hypercall_info.OsSpecificFields.Info.CredAltered,
	jne	.L21	#,
# handlers.c:376:         uint32_t *in_execve = (uint32_t *)((unsigned long)(current) + hypercall_info.OsSpecificFields.Task.InExecve);
	mov	eax, DWORD PTR hypercall_info[rip+11196]	# hypercall_info.OsSpecificFields.Task.InExecve, hypercall_info.OsSpecificFields.Task.InExecve
# handlers.c:378:         if ((*in_execve & BIT(hypercall_info.OsSpecificFields.Task.InExecveBit))) {
	mov	edx, DWORD PTR [r8+rax]	# *in_execve_18, *in_execve_18
	mov	eax, DWORD PTR hypercall_info[rip+11200]	# hypercall_info.OsSpecificFields.Task.InExecveBit, hypercall_info.OsSpecificFields.Task.InExecveBit
	bt	rdx, rax	# *in_execve_18, hypercall_info.OsSpecificFields.Task.InExecveBit
	jc	.L20	#,
.L21:
	mov	r9, rdi	# creds, creds
# handlers.c:383:     vmcall_2(det_commit_creds, current, creds);
	xor	edi, edi	#
	call	vmcall	#
.L20:
# handlers.c:384: }
	pop	rax	#
	.cfi_def_cfa_offset 40
	pop	rdx	#
	.cfi_def_cfa_offset 32
	pop	rdi	#
	.cfi_def_cfa_offset 24
	pop	r8	#
	.cfi_def_cfa_offset 16
	pop	r9	#
	.cfi_def_cfa_offset 8
	ret
	.cfi_endproc
.LFE5:
	.size	commit_creds, .-commit_creds
	.align 16
	.globl	module_param_sysfs_setup
	.type	module_param_sysfs_setup, @function
module_param_sysfs_setup:
.LFB6:
	.cfi_startproc
	push	r8	#
	.cfi_def_cfa_offset 16
	.cfi_offset 8, -16
	mov	r8, rdi	# module, module
	push	rdi	#
	.cfi_def_cfa_offset 24
	.cfi_offset 5, -24
	push	rax	#
	.cfi_def_cfa_offset 32
	.cfi_offset 0, -32
# handlers.c:391:     vmcall_1(det_module_param_sysfs_setup, module);
	mov	edi, 2	#,
	call	vmcall	#
# handlers.c:392: }
	pop	rax	#
	.cfi_def_cfa_offset 24
	pop	rdi	#
	.cfi_def_cfa_offset 16
	pop	r8	#
	.cfi_def_cfa_offset 8
	ret
	.cfi_endproc
.LFE6:
	.size	module_param_sysfs_setup, .-module_param_sysfs_setup
	.align 16
	.globl	module_param_sysfs_remove
	.type	module_param_sysfs_remove, @function
module_param_sysfs_remove:
.LFB7:
	.cfi_startproc
	push	r8	#
	.cfi_def_cfa_offset 16
	.cfi_offset 8, -16
	mov	r8, rdi	# module, module
	push	rdi	#
	.cfi_def_cfa_offset 24
	.cfi_offset 5, -24
	push	rax	#
	.cfi_def_cfa_offset 32
	.cfi_offset 0, -32
# handlers.c:399:     vmcall_1(det_module_param_sysfs_remove, module);
	mov	edi, 3	#,
	call	vmcall	#
# handlers.c:400: }
	pop	rax	#
	.cfi_def_cfa_offset 24
	pop	rdi	#
	.cfi_def_cfa_offset 16
	pop	r8	#
	.cfi_def_cfa_offset 8
	ret
	.cfi_endproc
.LFE7:
	.size	module_param_sysfs_remove, .-module_param_sysfs_remove
	.align 16
	.globl	wake_up_new_task
	.type	wake_up_new_task, @function
wake_up_new_task:
.LFB8:
	.cfi_startproc
	push	r9	#
	.cfi_def_cfa_offset 16
	.cfi_offset 9, -16
	mov	r9, rdi	# task, task
	push	r8	#
	.cfi_def_cfa_offset 24
	.cfi_offset 8, -24
# handlers.c:407:     vmcall_2(det_wake_up_new_task, current_task, task);
	mov	r8d, DWORD PTR hypercall_info[rip+11232]	# hypercall_info.OsSpecificFields.CurrentTaskOffset, hypercall_info.OsSpecificFields.CurrentTaskOffset
# handlers.c:406: {
	push	rdi	#
	.cfi_def_cfa_offset 32
	.cfi_offset 5, -32
	push	rax	#
	.cfi_def_cfa_offset 40
	.cfi_offset 0, -40
# handlers.c:407:     vmcall_2(det_wake_up_new_task, current_task, task);
#APP
# 407 "handlers.c" 1
	mov r8, gs:[r8]	# ret, hypercall_info.OsSpecificFields.CurrentTaskOffset
# 0 "" 2
#NO_APP
	mov	edi, 4	#,
	call	vmcall	#
# handlers.c:408: }
	pop	rax	#
	.cfi_def_cfa_offset 32
	pop	rdi	#
	.cfi_def_cfa_offset 24
	pop	r8	#
	.cfi_def_cfa_offset 16
	pop	r9	#
	.cfi_def_cfa_offset 8
	ret
	.cfi_endproc
.LFE8:
	.size	wake_up_new_task, .-wake_up_new_task
	.align 16
	.globl	flush_old_exec
	.type	flush_old_exec, @function
flush_old_exec:
.LFB9:
	.cfi_startproc
# handlers.c:415:     unsigned long file = *(unsigned long *)(binprm + hypercall_info.OsSpecificFields.Binprm.FileOffset);
	mov	eax, DWORD PTR hypercall_info[rip+11204]	# hypercall_info.OsSpecificFields.Binprm.FileOffset, hypercall_info.OsSpecificFields.Binprm.FileOffset
# handlers.c:414: {
	push	r10	#
	.cfi_def_cfa_offset 16
	.cfi_offset 10, -16
	push	r9	#
	.cfi_def_cfa_offset 24
	.cfi_offset 9, -24
	mov	r9, rdi	# binprm, binprm
	push	r8	#
	.cfi_def_cfa_offset 32
	.cfi_offset 8, -32
	push	rdi	#
	.cfi_def_cfa_offset 40
	.cfi_offset 5, -40
	push	rdx	#
	.cfi_def_cfa_offset 48
	.cfi_offset 1, -48
# handlers.c:415:     unsigned long file = *(unsigned long *)(binprm + hypercall_info.OsSpecificFields.Binprm.FileOffset);
	mov	rdi, QWORD PTR [rax+rdi]	# file, *_4
# handlers.c:418:     if (!file) {
	test	rdi, rdi	# file
	je	.L31	#,
# handlers.c:422:     path_struct = file + hypercall_info.OsSpecificFields.File.PathOffset;
	mov	edx, DWORD PTR hypercall_info[rip+11212]	# hypercall_info.OsSpecificFields.File.PathOffset, hypercall_info.OsSpecificFields.File.PathOffset
	add	rdi, rdx	# file, hypercall_info.OsSpecificFields.File.PathOffset
.L31:
# handlers.c:425:     return vmcall_3(det_flush_old_exec, current_task, binprm, d_path((void *)path_struct));
	mov	r8d, DWORD PTR hypercall_info[rip+11232]	# hypercall_info.OsSpecificFields.CurrentTaskOffset, hypercall_info.OsSpecificFields.CurrentTaskOffset
#APP
# 425 "handlers.c" 1
	mov r8, gs:[r8]	# ret, hypercall_info.OsSpecificFields.CurrentTaskOffset
# 0 "" 2
#NO_APP
	call	d_path	#
	mov	r10, rax	# _12,
	mov	edi, 5	#,
	call	vmcall	#
# handlers.c:426: }
	pop	rdx	#
	.cfi_def_cfa_offset 40
	pop	rdi	#
	.cfi_def_cfa_offset 32
	pop	r8	#
	.cfi_def_cfa_offset 24
	pop	r9	#
	.cfi_def_cfa_offset 16
	pop	r10	#
	.cfi_def_cfa_offset 8
	ret
	.cfi_endproc
.LFE9:
	.size	flush_old_exec, .-flush_old_exec
	.align 16
	.globl	begin_new_exec
	.type	begin_new_exec, @function
begin_new_exec:
.LFB10:
	.cfi_startproc
# handlers.c:433:     unsigned long file = *(unsigned long *)(binprm + hypercall_info.OsSpecificFields.Binprm.FileOffset);
	mov	eax, DWORD PTR hypercall_info[rip+11204]	# hypercall_info.OsSpecificFields.Binprm.FileOffset, hypercall_info.OsSpecificFields.Binprm.FileOffset
# handlers.c:432: {
	push	r10	#
	.cfi_def_cfa_offset 16
	.cfi_offset 10, -16
	push	r9	#
	.cfi_def_cfa_offset 24
	.cfi_offset 9, -24
	mov	r9, rdi	# binprm, binprm
	push	r8	#
	.cfi_def_cfa_offset 32
	.cfi_offset 8, -32
	push	rdi	#
	.cfi_def_cfa_offset 40
	.cfi_offset 5, -40
	push	rdx	#
	.cfi_def_cfa_offset 48
	.cfi_offset 1, -48
# handlers.c:433:     unsigned long file = *(unsigned long *)(binprm + hypercall_info.OsSpecificFields.Binprm.FileOffset);
	mov	rdi, QWORD PTR [rax+rdi]	# file, *_4
# handlers.c:436:     if (!file) {
	test	rdi, rdi	# file
	je	.L37	#,
# handlers.c:440:     path_struct = file + hypercall_info.OsSpecificFields.File.PathOffset;
	mov	edx, DWORD PTR hypercall_info[rip+11212]	# hypercall_info.OsSpecificFields.File.PathOffset, hypercall_info.OsSpecificFields.File.PathOffset
	add	rdi, rdx	# file, hypercall_info.OsSpecificFields.File.PathOffset
.L37:
# handlers.c:443:     return vmcall_3(det_begin_new_exec, current_task, binprm, d_path((void *)path_struct));
	mov	r8d, DWORD PTR hypercall_info[rip+11232]	# hypercall_info.OsSpecificFields.CurrentTaskOffset, hypercall_info.OsSpecificFields.CurrentTaskOffset
#APP
# 443 "handlers.c" 1
	mov r8, gs:[r8]	# ret, hypercall_info.OsSpecificFields.CurrentTaskOffset
# 0 "" 2
#NO_APP
	call	d_path	#
	mov	r10, rax	# _12,
	mov	edi, 6	#,
	call	vmcall	#
# handlers.c:444: }
	pop	rdx	#
	.cfi_def_cfa_offset 40
	pop	rdi	#
	.cfi_def_cfa_offset 32
	pop	r8	#
	.cfi_def_cfa_offset 24
	pop	r9	#
	.cfi_def_cfa_offset 16
	pop	r10	#
	.cfi_def_cfa_offset 8
	ret
	.cfi_endproc
.LFE10:
	.size	begin_new_exec, .-begin_new_exec
	.align 16
	.globl	do_exit
	.type	do_exit, @function
do_exit:
.LFB11:
	.cfi_startproc
	push	r9	#
	.cfi_def_cfa_offset 16
	.cfi_offset 9, -16
	mov	r9, rdi	# code, code
	push	r8	#
	.cfi_def_cfa_offset 24
	.cfi_offset 8, -24
# handlers.c:451:     vmcall_2(det_do_exit, current_task, code);
	mov	r8d, DWORD PTR hypercall_info[rip+11232]	# hypercall_info.OsSpecificFields.CurrentTaskOffset, hypercall_info.OsSpecificFields.CurrentTaskOffset
# handlers.c:450: {
	push	rdi	#
	.cfi_def_cfa_offset 32
	.cfi_offset 5, -32
	push	rax	#
	.cfi_def_cfa_offset 40
	.cfi_offset 0, -40
# handlers.c:451:     vmcall_2(det_do_exit, current_task, code);
#APP
# 451 "handlers.c" 1
	mov r8, gs:[r8]	# ret, hypercall_info.OsSpecificFields.CurrentTaskOffset
# 0 "" 2
#NO_APP
	mov	edi, 7	#,
	call	vmcall	#
# handlers.c:452: }
	pop	rax	#
	.cfi_def_cfa_offset 32
	pop	rdi	#
	.cfi_def_cfa_offset 24
	pop	r8	#
	.cfi_def_cfa_offset 16
	pop	r9	#
	.cfi_def_cfa_offset 8
	ret
	.cfi_endproc
.LFE11:
	.size	do_exit, .-do_exit
	.align 16
	.globl	arch_ptrace
	.type	arch_ptrace, @function
arch_ptrace:
.LFB12:
	.cfi_startproc
# handlers.c:468:     return 0;
	xor	eax, eax	# <retval>
# handlers.c:460:         || request == PTRACE_POKETEXT
	cmp	rsi, 19	# request,
	ja	.L49	#,
# handlers.c:458: {
	push	r9	#
	.cfi_def_cfa_offset 16
	.cfi_offset 9, -16
	push	r8	#
	.cfi_def_cfa_offset 24
	.cfi_offset 8, -24
	push	rdi	#
	.cfi_def_cfa_offset 32
	.cfi_offset 5, -32
	push	rsi	#
	.cfi_def_cfa_offset 40
	.cfi_offset 4, -40
	push	rdx	#
	.cfi_def_cfa_offset 48
	.cfi_offset 1, -48
# handlers.c:459:     if (request == PTRACE_POKEDATA
	mov	edx, 565296	# tmp99,
	bt	rdx, rsi	# tmp99, request
	jnc	.L44	#,
	mov	r9, rsi	# request, request
	mov	r8, rdi	# child, child
# handlers.c:465:         return vmcall_2(det_arch_ptrace, child, request);
	mov	edi, 8	#,
	call	vmcall	#
.L44:
# handlers.c:469: }
	pop	rdx	#
	.cfi_def_cfa_offset 40
	pop	rsi	#
	.cfi_def_cfa_offset 32
	pop	rdi	#
	.cfi_def_cfa_offset 24
	pop	r8	#
	.cfi_def_cfa_offset 16
	pop	r9	#
	.cfi_def_cfa_offset 8
	ret
.L49:
	.cfi_restore 1
	.cfi_restore 4
	.cfi_restore 5
	.cfi_restore 8
	.cfi_restore 9
	ret
	.cfi_endproc
.LFE12:
	.size	arch_ptrace, .-arch_ptrace
	.align 16
	.globl	process_vm_rw_core
	.type	process_vm_rw_core, @function
process_vm_rw_core:
.LFB13:
	.cfi_startproc
# handlers.c:477:     if (!vm_write) {
	test	r9d, r9d	# vm_write
	je	.L56	#,
# handlers.c:476: {
	push	r9	#
	.cfi_def_cfa_offset 16
	.cfi_offset 9, -16
	push	r8	#
	.cfi_def_cfa_offset 24
	.cfi_offset 8, -24
# handlers.c:481:     return vmcall_2(det_process_vm_rw_core, current_task, pid);
	mov	r8d, DWORD PTR hypercall_info[rip+11232]	# hypercall_info.OsSpecificFields.CurrentTaskOffset, hypercall_info.OsSpecificFields.CurrentTaskOffset
# handlers.c:476: {
	push	rdi	#
	.cfi_def_cfa_offset 32
	.cfi_offset 5, -32
# handlers.c:481:     return vmcall_2(det_process_vm_rw_core, current_task, pid);
#APP
# 481 "handlers.c" 1
	mov r8, gs:[r8]	# ret, hypercall_info.OsSpecificFields.CurrentTaskOffset
# 0 "" 2
#NO_APP
	movsx	r9, edi	# __p2, pid
	mov	edi, 10	#,
	call	vmcall	#
# handlers.c:482: }
	pop	rdi	#
	.cfi_def_cfa_offset 24
	pop	r8	#
	.cfi_def_cfa_offset 16
	pop	r9	#
	.cfi_def_cfa_offset 8
	ret
.L56:
	.cfi_restore 5
	.cfi_restore 8
	.cfi_restore 9
	xor	eax, eax	# <retval>
	ret
	.cfi_endproc
.LFE13:
	.size	process_vm_rw_core, .-process_vm_rw_core
	.align 16
	.globl	__vma_link_rb
	.type	__vma_link_rb, @function
__vma_link_rb:
.LFB14:
	.cfi_startproc
	push	r9	#
	.cfi_def_cfa_offset 16
	.cfi_offset 9, -16
	push	r8	#
	.cfi_def_cfa_offset 24
	.cfi_offset 8, -24
	push	rdi	#
	.cfi_def_cfa_offset 32
	.cfi_offset 5, -32
	push	rsi	#
	.cfi_def_cfa_offset 40
	.cfi_offset 4, -40
	push	rdx	#
	.cfi_def_cfa_offset 48
	.cfi_offset 1, -48
	push	rax	#
	.cfi_def_cfa_offset 56
	.cfi_offset 0, -56
# handlers.c:489:     long mm_flags = *(long *)((long)(mm) + hypercall_info.OsSpecificFields.Mm.FlagsOffset);
	mov	eax, DWORD PTR hypercall_info[rip+11184]	# hypercall_info.OsSpecificFields.Mm.FlagsOffset, hypercall_info.OsSpecificFields.Mm.FlagsOffset
# handlers.c:491:     if (!(mm_flags & BIT(hypercall_info.OsSpecificFields.Mm.ProtectionBit))) {
	mov	rdx, QWORD PTR [rdi+rax]	# *_5, *_5
	mov	eax, DWORD PTR hypercall_info[rip+11192]	# hypercall_info.OsSpecificFields.Mm.ProtectionBit, hypercall_info.OsSpecificFields.Mm.ProtectionBit
	bt	rdx, rax	# *_5, hypercall_info.OsSpecificFields.Mm.ProtectionBit
	jnc	.L61	#,
# handlers.c:495:     long file = *(long *)((long)(vma) + hypercall_info.OsSpecificFields.Vma.FileOffset);
	mov	eax, DWORD PTR hypercall_info[rip+11164]	# hypercall_info.OsSpecificFields.Vma.FileOffset, hypercall_info.OsSpecificFields.Vma.FileOffset
# handlers.c:496:     if (file) {
	cmp	QWORD PTR [rax+rsi], 0	# *_14,
	jne	.L61	#,
# handlers.c:500:     long vm_flags = *(long *)((long)(vma) + hypercall_info.OsSpecificFields.Vma.FlagsOffset);
	mov	eax, DWORD PTR hypercall_info[rip+11160]	# hypercall_info.OsSpecificFields.Vma.FlagsOffset, hypercall_info.OsSpecificFields.Vma.FlagsOffset
# handlers.c:501:     if (!(vm_flags & VM_EXEC)) {
	test	BYTE PTR [rsi+rax], 4	# *_18,
	je	.L61	#,
	mov	r8, rsi	# vma, vma
	mov	r9, rdi	# mm, mm
# handlers.c:505:     vmcall_2(det___vma_link_rb, vma, mm);
	mov	edi, 11	#,
	call	vmcall	#
.L61:
# handlers.c:506: }
	pop	rax	#
	.cfi_def_cfa_offset 48
	pop	rdx	#
	.cfi_def_cfa_offset 40
	pop	rsi	#
	.cfi_def_cfa_offset 32
	pop	rdi	#
	.cfi_def_cfa_offset 24
	pop	r8	#
	.cfi_def_cfa_offset 16
	pop	r9	#
	.cfi_def_cfa_offset 8
	ret
	.cfi_endproc
.LFE14:
	.size	__vma_link_rb, .-__vma_link_rb
	.align 16
	.globl	change_protection
	.type	change_protection, @function
change_protection:
.LFB15:
	.cfi_startproc
	push	r9	#
	.cfi_def_cfa_offset 16
	.cfi_offset 9, -16
	push	r8	#
	.cfi_def_cfa_offset 24
	.cfi_offset 8, -24
	push	rdi	#
	.cfi_def_cfa_offset 32
	.cfi_offset 5, -32
	push	rsi	#
	.cfi_def_cfa_offset 40
	.cfi_offset 4, -40
	push	rdx	#
	.cfi_def_cfa_offset 48
	.cfi_offset 1, -48
	push	rax	#
	.cfi_def_cfa_offset 56
	.cfi_offset 0, -56
# handlers.c:514:     long file = *(long *)(vma + hypercall_info.OsSpecificFields.Vma.FileOffset);
	mov	eax, DWORD PTR hypercall_info[rip+11164]	# hypercall_info.OsSpecificFields.Vma.FileOffset, hypercall_info.OsSpecificFields.Vma.FileOffset
# handlers.c:515:     if (file) {
	cmp	QWORD PTR [rax+rdi], 0	# *_4,
	jne	.L70	#,
# handlers.c:519:     long mm = *(long *)(vma + hypercall_info.OsSpecificFields.Vma.MmOffset);
	mov	eax, DWORD PTR hypercall_info[rip+11156]	# hypercall_info.OsSpecificFields.Vma.MmOffset, hypercall_info.OsSpecificFields.Vma.MmOffset
	mov	r9, QWORD PTR [rax+rdi]	# mm, *_8
# handlers.c:520:     long mm_flags = *(long *)(mm + hypercall_info.OsSpecificFields.Mm.FlagsOffset);
	mov	eax, DWORD PTR hypercall_info[rip+11184]	# hypercall_info.OsSpecificFields.Mm.FlagsOffset, hypercall_info.OsSpecificFields.Mm.FlagsOffset
# handlers.c:522:     if (!(mm_flags & BIT(hypercall_info.OsSpecificFields.Mm.ProtectionBit))) {
	mov	rdx, QWORD PTR [rax+r9]	# *_12, *_12
	mov	eax, DWORD PTR hypercall_info[rip+11192]	# hypercall_info.OsSpecificFields.Mm.ProtectionBit, hypercall_info.OsSpecificFields.Mm.ProtectionBit
	bt	rdx, rax	# *_12, hypercall_info.OsSpecificFields.Mm.ProtectionBit
	jnc	.L70	#,
# handlers.c:526:     long vm_flags = *(long *)(vma + hypercall_info.OsSpecificFields.Vma.FlagsOffset);
	mov	eax, DWORD PTR hypercall_info[rip+11160]	# hypercall_info.OsSpecificFields.Vma.FlagsOffset, hypercall_info.OsSpecificFields.Vma.FlagsOffset
# handlers.c:528:     if (((vm_flags & BIT(hypercall_info.OsSpecificFields.Vma.ProtectionBit)) && !(vm_flags & VM_EXEC))
	mov	esi, DWORD PTR hypercall_info[rip+11180]	# hypercall_info.OsSpecificFields.Vma.ProtectionBit, hypercall_info.OsSpecificFields.Vma.ProtectionBit
# handlers.c:526:     long vm_flags = *(long *)(vma + hypercall_info.OsSpecificFields.Vma.FlagsOffset);
	mov	rdx, QWORD PTR [rax+rdi]	# vm_flags, *_20
	mov	rax, rdx	# _42, vm_flags
	and	eax, 4	# _42,
# handlers.c:528:     if (((vm_flags & BIT(hypercall_info.OsSpecificFields.Vma.ProtectionBit)) && !(vm_flags & VM_EXEC))
	bt	rdx, rsi	# vm_flags, hypercall_info.OsSpecificFields.Vma.ProtectionBit
	jnc	.L72	#,
# handlers.c:528:     if (((vm_flags & BIT(hypercall_info.OsSpecificFields.Vma.ProtectionBit)) && !(vm_flags & VM_EXEC))
	test	rax, rax	# _42
	je	.L73	#,
	jmp	.L70	#
.L72:
# handlers.c:529:         || (!(vm_flags & BIT(hypercall_info.OsSpecificFields.Vma.ProtectionBit)) && (vm_flags & VM_EXEC))) {
	test	rax, rax	# _42
	je	.L70	#,
.L73:
	mov	r8, rdi	# vma, vma
# handlers.c:532:         vmcall_2(det_change_protection, vma, mm);
	mov	edi, 12	#,
	call	vmcall	#
.L70:
# handlers.c:534: }
	pop	rax	#
	.cfi_def_cfa_offset 48
	pop	rdx	#
	.cfi_def_cfa_offset 40
	pop	rsi	#
	.cfi_def_cfa_offset 32
	pop	rdi	#
	.cfi_def_cfa_offset 24
	pop	r8	#
	.cfi_def_cfa_offset 16
	pop	r9	#
	.cfi_def_cfa_offset 8
	ret
	.cfi_endproc
.LFE15:
	.size	change_protection, .-change_protection
	.align 16
	.globl	pre_vma_adjust
	.type	pre_vma_adjust, @function
pre_vma_adjust:
.LFB16:
	.cfi_startproc
	push	rdi	#
	.cfi_def_cfa_offset 16
	.cfi_offset 5, -16
	push	rsi	#
	.cfi_def_cfa_offset 24
	.cfi_offset 4, -24
	push	rdx	#
	.cfi_def_cfa_offset 32
	.cfi_offset 1, -32
# handlers.c:545:     long vm_flags = *(long *)(vma + hypercall_info.OsSpecificFields.Vma.FlagsOffset);
	mov	edx, DWORD PTR hypercall_info[rip+11160]	# hypercall_info.OsSpecificFields.Vma.FlagsOffset, hypercall_info.OsSpecificFields.Vma.FlagsOffset
# handlers.c:542: {
	push	rax	#
	.cfi_def_cfa_offset 40
	.cfi_offset 0, -40
# handlers.c:542: {
	mov	rax, QWORD PTR 40[rsp]	# skip_call, skip_call
# handlers.c:543:     *skip_call = 1;
	mov	QWORD PTR [rax], 1	# *skip_call_21(D),
# handlers.c:546:     if (!(vm_flags & BIT(hypercall_info.OsSpecificFields.Vma.ProtectionBit))) {
	mov	rsi, QWORD PTR [rdx+rdi]	# *_4, *_4
	mov	edx, DWORD PTR hypercall_info[rip+11180]	# hypercall_info.OsSpecificFields.Vma.ProtectionBit, hypercall_info.OsSpecificFields.Vma.ProtectionBit
	bt	rsi, rdx	# *_4, hypercall_info.OsSpecificFields.Vma.ProtectionBit
	jnc	.L84	#,
# handlers.c:550:     *saved_vma = vma;
	mov	rdx, QWORD PTR 48[rsp]	# saved_vma, saved_vma
	mov	QWORD PTR [rdx], rdi	# *saved_vma_25(D), vma
# handlers.c:551:     *next = *(long *)(vma + hypercall_info.OsSpecificFields.Vma.VmNextOffset);
	mov	edx, DWORD PTR hypercall_info[rip+11168]	# hypercall_info.OsSpecificFields.Vma.VmNextOffset, hypercall_info.OsSpecificFields.Vma.VmNextOffset
	mov	rsi, QWORD PTR [rdx+rdi]	# _13, *_12
	mov	rdx, QWORD PTR 56[rsp]	# next, next
	mov	QWORD PTR [rdx], rsi	# *next_27(D), _13
# handlers.c:552:     *prev = *(long *)(vma + hypercall_info.OsSpecificFields.Vma.VmPrevOffset);
	mov	edx, DWORD PTR hypercall_info[rip+11172]	# hypercall_info.OsSpecificFields.Vma.VmPrevOffset, hypercall_info.OsSpecificFields.Vma.VmPrevOffset
	mov	rsi, QWORD PTR [rdx+rdi]	# _18, *_17
	mov	rdx, QWORD PTR 64[rsp]	# prev, prev
	mov	QWORD PTR [rdx], rsi	# *prev_29(D), _18
# handlers.c:553:     *skip_call = 0;
	mov	QWORD PTR [rax], 0	# *skip_call_21(D),
.L84:
# handlers.c:556: }
	pop	rax	#
	.cfi_def_cfa_offset 32
	pop	rdx	#
	.cfi_def_cfa_offset 24
	pop	rsi	#
	.cfi_def_cfa_offset 16
	pop	rdi	#
	.cfi_def_cfa_offset 8
	ret
	.cfi_endproc
.LFE16:
	.size	pre_vma_adjust, .-pre_vma_adjust
	.align 16
	.globl	vma_adjust
	.type	vma_adjust, @function
vma_adjust:
.LFB17:
	.cfi_startproc
	push	r11	#
	.cfi_def_cfa_offset 16
	.cfi_offset 11, -16
	push	r10	#
	.cfi_def_cfa_offset 24
	.cfi_offset 10, -24
	push	r9	#
	.cfi_def_cfa_offset 32
	.cfi_offset 9, -32
	push	r8	#
	.cfi_def_cfa_offset 40
	.cfi_offset 8, -40
	push	rdi	#
	.cfi_def_cfa_offset 48
	.cfi_offset 5, -48
	push	rbx	#
	.cfi_def_cfa_offset 56
	.cfi_offset 3, -56
	push	rcx	#
	.cfi_def_cfa_offset 64
	.cfi_offset 2, -64
	push	rax	#
	.cfi_def_cfa_offset 72
	.cfi_offset 0, -72
# handlers.c:565:     long mm = *(long *)(saved_vma + hypercall_info.OsSpecificFields.Vma.MmOffset);
	mov	eax, DWORD PTR hypercall_info[rip+11156]	# hypercall_info.OsSpecificFields.Vma.MmOffset, hypercall_info.OsSpecificFields.Vma.MmOffset
# handlers.c:563: {
	mov	rcx, QWORD PTR 80[rsp]	# saved_vma, saved_vma
# handlers.c:565:     long mm = *(long *)(saved_vma + hypercall_info.OsSpecificFields.Vma.MmOffset);
	mov	rbx, QWORD PTR [rax+rcx]	# mm, *_4
# handlers.c:567:     vmcall_4(det_vma_adjust, svma, mm, next, prev);
	mov	r8, rcx	# __p1, saved_vma
	mov	r9, rbx	# __p2, mm
	mov	r10, QWORD PTR 88[rsp]	# __p3, next
	mov	r11, QWORD PTR 96[rsp]	# __p4, prev
	mov	edi, 13	#,
	call	vmcall	#
# handlers.c:568:     vmcall_4(det___vma_adjust, svma, mm, next, prev);
	mov	r10, QWORD PTR 88[rsp]	# __p3, next
	mov	r11, QWORD PTR 96[rsp]	# __p4, prev
	mov	edi, 14	#,
	call	vmcall	#
# handlers.c:569: }
	pop	rax	#
	.cfi_def_cfa_offset 64
	pop	rcx	#
	.cfi_def_cfa_offset 56
	pop	rbx	#
	.cfi_def_cfa_offset 48
	pop	rdi	#
	.cfi_def_cfa_offset 40
	pop	r8	#
	.cfi_def_cfa_offset 32
	pop	r9	#
	.cfi_def_cfa_offset 24
	pop	r10	#
	.cfi_def_cfa_offset 16
	pop	r11	#
	.cfi_def_cfa_offset 8
	ret
	.cfi_endproc
.LFE17:
	.size	vma_adjust, .-vma_adjust
	.align 16
	.globl	vma_rb_erase
	.type	vma_rb_erase, @function
vma_rb_erase:
.LFB18:
	.cfi_startproc
	push	r9	#
	.cfi_def_cfa_offset 16
	.cfi_offset 9, -16
	push	r8	#
	.cfi_def_cfa_offset 24
	.cfi_offset 8, -24
	push	rdi	#
	.cfi_def_cfa_offset 32
	.cfi_offset 5, -32
	push	rcx	#
	.cfi_def_cfa_offset 40
	.cfi_offset 2, -40
	push	rdx	#
	.cfi_def_cfa_offset 48
	.cfi_offset 1, -48
	push	rax	#
	.cfi_def_cfa_offset 56
	.cfi_offset 0, -56
# handlers.c:576:     long vm_flags = *(long *)(vma + hypercall_info.OsSpecificFields.Vma.FlagsOffset);
	mov	eax, DWORD PTR hypercall_info[rip+11160]	# hypercall_info.OsSpecificFields.Vma.FlagsOffset, hypercall_info.OsSpecificFields.Vma.FlagsOffset
# handlers.c:577:     if (!(vm_flags & BIT(hypercall_info.OsSpecificFields.Vma.ProtectionBit))) {
	mov	rdx, QWORD PTR [rax+rdi]	# *_4, *_4
	mov	eax, DWORD PTR hypercall_info[rip+11180]	# hypercall_info.OsSpecificFields.Vma.ProtectionBit, hypercall_info.OsSpecificFields.Vma.ProtectionBit
	bt	rdx, rax	# *_4, hypercall_info.OsSpecificFields.Vma.ProtectionBit
	jnc	.L92	#,
	mov	rcx, rdi	# vma, vma
# handlers.c:581:     vmcall_2(det_vma_rb_erase, vma, *(long *)(vma + hypercall_info.OsSpecificFields.Vma.MmOffset));
	mov	r8, rdi	# __p1, vma
	mov	eax, DWORD PTR hypercall_info[rip+11156]	# hypercall_info.OsSpecificFields.Vma.MmOffset, hypercall_info.OsSpecificFields.Vma.MmOffset
	mov	r9, QWORD PTR [rax+rdi]	# __p2, *_13
	mov	edi, 15	#,
	call	vmcall	#
# handlers.c:582:     vmcall_2(det___vma_rb_erase, vma, *(long *)(vma + hypercall_info.OsSpecificFields.Vma.MmOffset));
	mov	eax, DWORD PTR hypercall_info[rip+11156]	# hypercall_info.OsSpecificFields.Vma.MmOffset, hypercall_info.OsSpecificFields.Vma.MmOffset
	mov	r9, QWORD PTR [rax+rcx]	# __p2, *_19
	mov	edi, 16	#,
	call	vmcall	#
.L92:
# handlers.c:583: }
	pop	rax	#
	.cfi_def_cfa_offset 48
	pop	rdx	#
	.cfi_def_cfa_offset 40
	pop	rcx	#
	.cfi_def_cfa_offset 32
	pop	rdi	#
	.cfi_def_cfa_offset 24
	pop	r8	#
	.cfi_def_cfa_offset 16
	pop	r9	#
	.cfi_def_cfa_offset 8
	ret
	.cfi_endproc
.LFE18:
	.size	vma_rb_erase, .-vma_rb_erase
	.align 16
	.globl	expand_downwards
	.type	expand_downwards, @function
expand_downwards:
.LFB19:
	.cfi_startproc
	push	r10	#
	.cfi_def_cfa_offset 16
	.cfi_offset 10, -16
	push	r9	#
	.cfi_def_cfa_offset 24
	.cfi_offset 9, -24
	push	r8	#
	.cfi_def_cfa_offset 32
	.cfi_offset 8, -32
	push	rdi	#
	.cfi_def_cfa_offset 40
	.cfi_offset 5, -40
	push	rsi	#
	.cfi_def_cfa_offset 48
	.cfi_offset 4, -48
	push	rdx	#
	.cfi_def_cfa_offset 56
	.cfi_offset 1, -56
	push	rax	#
	.cfi_def_cfa_offset 64
	.cfi_offset 0, -64
# handlers.c:590:     long vm_flags = *(long *)(vma + hypercall_info.OsSpecificFields.Vma.FlagsOffset);
	mov	eax, DWORD PTR hypercall_info[rip+11160]	# hypercall_info.OsSpecificFields.Vma.FlagsOffset, hypercall_info.OsSpecificFields.Vma.FlagsOffset
# handlers.c:591:     if (!(vm_flags & BIT(hypercall_info.OsSpecificFields.Vma.ProtectionBit))) {
	mov	rdx, QWORD PTR [rax+rdi]	# *_4, *_4
	mov	eax, DWORD PTR hypercall_info[rip+11180]	# hypercall_info.OsSpecificFields.Vma.ProtectionBit, hypercall_info.OsSpecificFields.Vma.ProtectionBit
	bt	rdx, rax	# *_4, hypercall_info.OsSpecificFields.Vma.ProtectionBit
	jnc	.L98	#,
	mov	r10, rsi	# address, address
# handlers.c:595:     vmcall_3(det_expand_downwards, vma, *(long *)(vma + hypercall_info.OsSpecificFields.Vma.MmOffset), address);
	mov	r8, rdi	# __p1, vma
	mov	eax, DWORD PTR hypercall_info[rip+11156]	# hypercall_info.OsSpecificFields.Vma.MmOffset, hypercall_info.OsSpecificFields.Vma.MmOffset
	mov	r9, QWORD PTR [rax+rdi]	# __p2, *_13
	mov	edi, 17	#,
	call	vmcall	#
.L98:
# handlers.c:596: }
	pop	rax	#
	.cfi_def_cfa_offset 56
	pop	rdx	#
	.cfi_def_cfa_offset 48
	pop	rsi	#
	.cfi_def_cfa_offset 40
	pop	rdi	#
	.cfi_def_cfa_offset 32
	pop	r8	#
	.cfi_def_cfa_offset 24
	pop	r9	#
	.cfi_def_cfa_offset 16
	pop	r10	#
	.cfi_def_cfa_offset 8
	ret
	.cfi_endproc
.LFE19:
	.size	expand_downwards, .-expand_downwards
	.align 16
	.globl	complete_signal
	.type	complete_signal, @function
complete_signal:
.LFB20:
	.cfi_startproc
	push	r10	#
	.cfi_def_cfa_offset 16
	.cfi_offset 10, -16
	push	r9	#
	.cfi_def_cfa_offset 24
	.cfi_offset 9, -24
	push	r8	#
	.cfi_def_cfa_offset 32
	.cfi_offset 8, -32
	push	rdi	#
	.cfi_def_cfa_offset 40
	.cfi_offset 5, -40
	push	rsi	#
	.cfi_def_cfa_offset 48
	.cfi_offset 4, -48
	push	rcx	#
	.cfi_def_cfa_offset 56
	.cfi_offset 2, -56
	mov	ecx, edi	# sig, sig
	push	rdx	#
	.cfi_def_cfa_offset 64
	.cfi_offset 1, -64
# handlers.c:604:         && sig != SIGILL
	cmp	edi, 11	# sig,
	ja	.L105	#,
# handlers.c:603:     if (sig != SIGQUIT
	mov	eax, 2520	# tmp100,
	bt	rax, rdi	# tmp100, sig
	jc	.L106	#,
.L105:
	mov	edx, ecx	# <retval>, sig
	jmp	.L104	#
.L106:
	mov	r8, rsi	# task, task
# handlers.c:613:     int new_sig = vmcall_3(det_complete_signal, task, sig, type);
	movsx	r9, edi	# __p2, sig
	mov	r10d, edx	# __p3, type
	mov	edi, 18	#,
	call	vmcall	#
	mov	edx, eax	# <retval>, _20
# handlers.c:614:     return new_sig ? new_sig : sig;
	test	eax, eax	# _20
	je	.L105	#,
.L104:
# handlers.c:615: }
	mov	eax, edx	#, <retval>
	pop	rdx	#
	.cfi_def_cfa_offset 56
	pop	rcx	#
	.cfi_def_cfa_offset 48
	pop	rsi	#
	.cfi_def_cfa_offset 40
	pop	rdi	#
	.cfi_def_cfa_offset 32
	pop	r8	#
	.cfi_def_cfa_offset 24
	pop	r9	#
	.cfi_def_cfa_offset 16
	pop	r10	#
	.cfi_def_cfa_offset 8
	ret
	.cfi_endproc
.LFE20:
	.size	complete_signal, .-complete_signal
	.align 16
	.globl	text_poke
	.type	text_poke, @function
text_poke:
.LFB21:
	.cfi_startproc
	push	r10	#
	.cfi_def_cfa_offset 16
	.cfi_offset 10, -16
	push	r9	#
	.cfi_def_cfa_offset 24
	.cfi_offset 9, -24
	push	r8	#
	.cfi_def_cfa_offset 32
	.cfi_offset 8, -32
# handlers.c:622:     vmcall_3(det_text_poke, addr, opcode, len);
	mov	r8, rdi	# __p1, addr
# handlers.c:621: {
	push	rbp	#
	.cfi_def_cfa_offset 40
	.cfi_offset 6, -40
	push	rdi	#
	.cfi_def_cfa_offset 48
	.cfi_offset 5, -48
	push	rsi	#
	.cfi_def_cfa_offset 56
	.cfi_offset 4, -56
	push	rbx	#
	.cfi_def_cfa_offset 64
	.cfi_offset 3, -64
	push	rcx	#
	.cfi_def_cfa_offset 72
	.cfi_offset 2, -72
	push	rdx	#
	.cfi_def_cfa_offset 80
	.cfi_offset 1, -80
	push	rax	#
	.cfi_def_cfa_offset 88
	.cfi_offset 0, -88
# handlers.c:622:     vmcall_3(det_text_poke, addr, opcode, len);
	mov	r9, rsi	# __p2, opcode
	mov	r10, rdx	# __p3, len
	mov	edi, 19	#,
	call	vmcall	#
# handlers.c:623:     vmcall_3(det___text_poke, addr, opcode, len);
	mov	edi, 20	#,
	call	vmcall	#
# handlers.c:624: }
	pop	rax	#
	.cfi_def_cfa_offset 80
	pop	rdx	#
	.cfi_def_cfa_offset 72
	pop	rcx	#
	.cfi_def_cfa_offset 64
	pop	rbx	#
	.cfi_def_cfa_offset 56
	pop	rsi	#
	.cfi_def_cfa_offset 48
	pop	rdi	#
	.cfi_def_cfa_offset 40
	pop	rbp	#
	.cfi_def_cfa_offset 32
	pop	r8	#
	.cfi_def_cfa_offset 24
	pop	r9	#
	.cfi_def_cfa_offset 16
	pop	r10	#
	.cfi_def_cfa_offset 8
	ret
	.cfi_endproc
.LFE21:
	.size	text_poke, .-text_poke
	.align 16
	.globl	ftrace_write
	.type	ftrace_write, @function
ftrace_write:
.LFB22:
	.cfi_startproc
	push	r10	#
	.cfi_def_cfa_offset 16
	.cfi_offset 10, -16
	push	r9	#
	.cfi_def_cfa_offset 24
	.cfi_offset 9, -24
	mov	r9, rsi	# val, val
	push	r8	#
	.cfi_def_cfa_offset 32
	.cfi_offset 8, -32
	mov	r8, rdi	# ip, ip
	push	rdi	#
	.cfi_def_cfa_offset 40
	.cfi_offset 5, -40
	push	rsi	#
	.cfi_def_cfa_offset 48
	.cfi_offset 4, -48
	push	rdx	#
	.cfi_def_cfa_offset 56
	.cfi_offset 1, -56
	push	rax	#
	.cfi_def_cfa_offset 64
	.cfi_offset 0, -64
# handlers.c:631:     vmcall_3(det_ftrace_write, ip, val, size);
	movsx	r10, edx	# __p3, size
	mov	edi, 21	#,
	call	vmcall	#
# handlers.c:632: }
	pop	rax	#
	.cfi_def_cfa_offset 56
	pop	rdx	#
	.cfi_def_cfa_offset 48
	pop	rsi	#
	.cfi_def_cfa_offset 40
	pop	rdi	#
	.cfi_def_cfa_offset 32
	pop	r8	#
	.cfi_def_cfa_offset 24
	pop	r9	#
	.cfi_def_cfa_offset 16
	pop	r10	#
	.cfi_def_cfa_offset 8
	ret
	.cfi_endproc
.LFE22:
	.size	ftrace_write, .-ftrace_write
	.align 16
	.globl	panic
	.type	panic, @function
panic:
.LFB23:
	.cfi_startproc
	push	rdi	#
	.cfi_def_cfa_offset 16
	.cfi_offset 5, -16
# handlers.c:639:     vmcall(det_panic);
	mov	edi, 22	#,
# handlers.c:638: {
	push	rax	#
	.cfi_def_cfa_offset 24
	.cfi_offset 0, -24
# handlers.c:639:     vmcall(det_panic);
	call	vmcall	#
# handlers.c:640: }
	pop	rax	#
	.cfi_def_cfa_offset 16
	pop	rdi	#
	.cfi_def_cfa_offset 8
	ret
	.cfi_endproc
.LFE23:
	.size	panic, .-panic
	.align 16
	.globl	arch_jump_label_transform
	.type	arch_jump_label_transform, @function
arch_jump_label_transform:
.LFB24:
	.cfi_startproc
	push	r9	#
	.cfi_def_cfa_offset 16
	.cfi_offset 9, -16
	push	r8	#
	.cfi_def_cfa_offset 24
	.cfi_offset 8, -24
	mov	r8, rdi	# entry, entry
	push	rdi	#
	.cfi_def_cfa_offset 32
	.cfi_offset 5, -32
	push	rsi	#
	.cfi_def_cfa_offset 40
	.cfi_offset 4, -40
	push	rax	#
	.cfi_def_cfa_offset 48
	.cfi_offset 0, -48
# handlers.c:647:     vmcall_2(det_arch_jump_label_transform, entry, type);
	mov	r9d, esi	# __p2, type
	mov	edi, 1	#,
	call	vmcall	#
# handlers.c:648: }
	pop	rax	#
	.cfi_def_cfa_offset 40
	pop	rsi	#
	.cfi_def_cfa_offset 32
	pop	rdi	#
	.cfi_def_cfa_offset 24
	pop	r8	#
	.cfi_def_cfa_offset 16
	pop	r9	#
	.cfi_def_cfa_offset 8
	ret
	.cfi_endproc
.LFE24:
	.size	arch_jump_label_transform, .-arch_jump_label_transform
	.align 16
	.globl	__access_remote_vm
	.type	__access_remote_vm, @function
__access_remote_vm:
.LFB25:
	.cfi_startproc
# handlers.c:656:     if ((gup_flags & 1) == 0) {
	test	r9b, 1	# gup_flags,
	je	.L123	#,
# handlers.c:655: {
	push	r12	#
	.cfi_def_cfa_offset 16
	.cfi_offset 12, -16
	mov	r12d, r9d	#, gup_flags
	push	r11	#
	.cfi_def_cfa_offset 24
	.cfi_offset 11, -24
	movsx	r11, r8d	#, len
	push	r10	#
	.cfi_def_cfa_offset 32
	.cfi_offset 10, -32
	mov	r10, rcx	# buf, buf
	push	r9	#
	.cfi_def_cfa_offset 40
	.cfi_offset 9, -40
	mov	r9, rdx	# addr, addr
	push	r8	#
	.cfi_def_cfa_offset 48
	.cfi_offset 8, -48
	mov	r8, rsi	# mm, mm
	push	rdi	#
	.cfi_def_cfa_offset 56
	.cfi_offset 5, -56
	push	rsi	#
	.cfi_def_cfa_offset 64
	.cfi_offset 4, -64
	push	rcx	#
	.cfi_def_cfa_offset 72
	.cfi_offset 2, -72
	push	rdx	#
	.cfi_def_cfa_offset 80
	.cfi_offset 1, -80
	push	rax	#
	.cfi_def_cfa_offset 88
	.cfi_offset 0, -88
# handlers.c:660:     vmcall_5(det___access_remote_vm, mm, addr, buf, len, gup_flags);
	mov	edi, 24	#,
	call	vmcall	#
# handlers.c:661: }
	pop	rax	#
	.cfi_def_cfa_offset 80
	pop	rdx	#
	.cfi_def_cfa_offset 72
	pop	rcx	#
	.cfi_def_cfa_offset 64
	pop	rsi	#
	.cfi_def_cfa_offset 56
	pop	rdi	#
	.cfi_def_cfa_offset 48
	pop	r8	#
	.cfi_def_cfa_offset 40
	pop	r9	#
	.cfi_def_cfa_offset 32
	pop	r10	#
	.cfi_def_cfa_offset 24
	pop	r11	#
	.cfi_def_cfa_offset 16
	pop	r12	#
	.cfi_def_cfa_offset 8
	ret
.L123:
	.cfi_restore 0
	.cfi_restore 1
	.cfi_restore 2
	.cfi_restore 4
	.cfi_restore 5
	.cfi_restore 8
	.cfi_restore 9
	.cfi_restore 10
	.cfi_restore 11
	.cfi_restore 12
	ret
	.cfi_endproc
.LFE25:
	.size	__access_remote_vm, .-__access_remote_vm
	.align 16
	.globl	do_munmap_rb_erase
	.type	do_munmap_rb_erase, @function
do_munmap_rb_erase:
.LFB26:
	.cfi_startproc
	push	r9	#
	.cfi_def_cfa_offset 16
	.cfi_offset 9, -16
	push	r8	#
	.cfi_def_cfa_offset 24
	.cfi_offset 8, -24
	push	rdi	#
	.cfi_def_cfa_offset 32
	.cfi_offset 5, -32
	push	rsi	#
	.cfi_def_cfa_offset 40
	.cfi_offset 4, -40
	push	rdx	#
	.cfi_def_cfa_offset 48
	.cfi_offset 1, -48
	push	rax	#
	.cfi_def_cfa_offset 56
	.cfi_offset 0, -56
# handlers.c:668:     unsigned long vma = vma_vm_rb - hypercall_info.OsSpecificFields.Vma.Rb;
	mov	eax, DWORD PTR hypercall_info[rip+11176]	# hypercall_info.OsSpecificFields.Vma.Rb, hypercall_info.OsSpecificFields.Vma.Rb
	sub	rdi, rax	# vma_vm_rb, hypercall_info.OsSpecificFields.Vma.Rb
# handlers.c:670:     long vm_flags = *(long *)(vma + hypercall_info.OsSpecificFields.Vma.FlagsOffset);
	mov	eax, DWORD PTR hypercall_info[rip+11160]	# hypercall_info.OsSpecificFields.Vma.FlagsOffset, hypercall_info.OsSpecificFields.Vma.FlagsOffset
# handlers.c:672:     if (!(vm_flags & BIT(hypercall_info.OsSpecificFields.Vma.ProtectionBit))) {
	mov	rdx, QWORD PTR [rax+rdi]	# *_8, *_8
	mov	eax, DWORD PTR hypercall_info[rip+11180]	# hypercall_info.OsSpecificFields.Vma.ProtectionBit, hypercall_info.OsSpecificFields.Vma.ProtectionBit
	bt	rdx, rax	# *_8, hypercall_info.OsSpecificFields.Vma.ProtectionBit
	jnc	.L126	#,
	mov	r8, rdi	# vma, vma_vm_rb
	mov	r9, rsi	# mm_mm_rb, mm_mm_rb
# handlers.c:676:     vmcall_2(det_do_munmap_rb_erase, vma, mm);
# handlers.c:669:     unsigned long mm = mm_mm_rb - hypercall_info.OsSpecificFields.Mm.Rb;
	mov	eax, DWORD PTR hypercall_info[rip+11188]	# _3, hypercall_info.OsSpecificFields.Mm.Rb
	sub	r9, rax	# __p2, _3
# handlers.c:676:     vmcall_2(det_do_munmap_rb_erase, vma, mm);
	mov	edi, 26	#,
	call	vmcall	#
.L126:
# handlers.c:677: }
	pop	rax	#
	.cfi_def_cfa_offset 48
	pop	rdx	#
	.cfi_def_cfa_offset 40
	pop	rsi	#
	.cfi_def_cfa_offset 32
	pop	rdi	#
	.cfi_def_cfa_offset 24
	pop	r8	#
	.cfi_def_cfa_offset 16
	pop	r9	#
	.cfi_def_cfa_offset 8
	ret
	.cfi_endproc
.LFE26:
	.size	do_munmap_rb_erase, .-do_munmap_rb_erase
	.align 16
	.globl	vma_adjust_rb_erase
	.type	vma_adjust_rb_erase, @function
vma_adjust_rb_erase:
.LFB27:
	.cfi_startproc
	push	r9	#
	.cfi_def_cfa_offset 16
	.cfi_offset 9, -16
	push	r8	#
	.cfi_def_cfa_offset 24
	.cfi_offset 8, -24
	push	rdi	#
	.cfi_def_cfa_offset 32
	.cfi_offset 5, -32
	push	rsi	#
	.cfi_def_cfa_offset 40
	.cfi_offset 4, -40
	push	rdx	#
	.cfi_def_cfa_offset 48
	.cfi_offset 1, -48
	push	rax	#
	.cfi_def_cfa_offset 56
	.cfi_offset 0, -56
# handlers.c:684:     unsigned long vma = vma_vm_rb - hypercall_info.OsSpecificFields.Vma.Rb;
	mov	eax, DWORD PTR hypercall_info[rip+11176]	# hypercall_info.OsSpecificFields.Vma.Rb, hypercall_info.OsSpecificFields.Vma.Rb
	sub	rdi, rax	# vma_vm_rb, hypercall_info.OsSpecificFields.Vma.Rb
# handlers.c:686:     long vm_flags = *(long *)(vma + hypercall_info.OsSpecificFields.Vma.FlagsOffset);
	mov	eax, DWORD PTR hypercall_info[rip+11160]	# hypercall_info.OsSpecificFields.Vma.FlagsOffset, hypercall_info.OsSpecificFields.Vma.FlagsOffset
# handlers.c:688:     if (!(vm_flags & BIT(hypercall_info.OsSpecificFields.Vma.ProtectionBit))) {
	mov	rdx, QWORD PTR [rax+rdi]	# *_8, *_8
	mov	eax, DWORD PTR hypercall_info[rip+11180]	# hypercall_info.OsSpecificFields.Vma.ProtectionBit, hypercall_info.OsSpecificFields.Vma.ProtectionBit
	bt	rdx, rax	# *_8, hypercall_info.OsSpecificFields.Vma.ProtectionBit
	jnc	.L132	#,
	mov	r8, rdi	# vma, vma_vm_rb
	mov	r9, rsi	# mm_mm_rb, mm_mm_rb
# handlers.c:692:     vmcall_2(det_vma_adjust_rb_erase, vma, mm);
# handlers.c:685:     unsigned long mm = mm_mm_rb - hypercall_info.OsSpecificFields.Mm.Rb;
	mov	eax, DWORD PTR hypercall_info[rip+11188]	# _3, hypercall_info.OsSpecificFields.Mm.Rb
	sub	r9, rax	# __p2, _3
# handlers.c:692:     vmcall_2(det_vma_adjust_rb_erase, vma, mm);
	mov	edi, 27	#,
	call	vmcall	#
.L132:
# handlers.c:693: }
	pop	rax	#
	.cfi_def_cfa_offset 48
	pop	rdx	#
	.cfi_def_cfa_offset 40
	pop	rsi	#
	.cfi_def_cfa_offset 32
	pop	rdi	#
	.cfi_def_cfa_offset 24
	pop	r8	#
	.cfi_def_cfa_offset 16
	pop	r9	#
	.cfi_def_cfa_offset 8
	ret
	.cfi_endproc
.LFE27:
	.size	vma_adjust_rb_erase, .-vma_adjust_rb_erase
	.align 16
	.globl	mprotect_fixup_vma_wants_writenotify
	.type	mprotect_fixup_vma_wants_writenotify, @function
mprotect_fixup_vma_wants_writenotify:
.LFB28:
	.cfi_startproc
	push	r9	#
	.cfi_def_cfa_offset 16
	.cfi_offset 9, -16
	push	r8	#
	.cfi_def_cfa_offset 24
	.cfi_offset 8, -24
	push	rdi	#
	.cfi_def_cfa_offset 32
	.cfi_offset 5, -32
	push	rsi	#
	.cfi_def_cfa_offset 40
	.cfi_offset 4, -40
	push	rdx	#
	.cfi_def_cfa_offset 48
	.cfi_offset 1, -48
	push	rax	#
	.cfi_def_cfa_offset 56
	.cfi_offset 0, -56
# handlers.c:700:     long file = *(long *)(vma + hypercall_info.OsSpecificFields.Vma.FileOffset);
	mov	eax, DWORD PTR hypercall_info[rip+11164]	# hypercall_info.OsSpecificFields.Vma.FileOffset, hypercall_info.OsSpecificFields.Vma.FileOffset
# handlers.c:701:     if (file) {
	cmp	QWORD PTR [rax+rdi], 0	# *_4,
	jne	.L138	#,
# handlers.c:705:     long mm = *(long *)(vma + hypercall_info.OsSpecificFields.Vma.MmOffset);
	mov	eax, DWORD PTR hypercall_info[rip+11156]	# hypercall_info.OsSpecificFields.Vma.MmOffset, hypercall_info.OsSpecificFields.Vma.MmOffset
	mov	r9, QWORD PTR [rax+rdi]	# mm, *_8
# handlers.c:706:     long mm_flags = *(long *)(mm + hypercall_info.OsSpecificFields.Mm.FlagsOffset);
	mov	eax, DWORD PTR hypercall_info[rip+11184]	# hypercall_info.OsSpecificFields.Mm.FlagsOffset, hypercall_info.OsSpecificFields.Mm.FlagsOffset
# handlers.c:708:     if (!(mm_flags & BIT(hypercall_info.OsSpecificFields.Mm.ProtectionBit))) {
	mov	rdx, QWORD PTR [rax+r9]	# *_12, *_12
	mov	eax, DWORD PTR hypercall_info[rip+11192]	# hypercall_info.OsSpecificFields.Mm.ProtectionBit, hypercall_info.OsSpecificFields.Mm.ProtectionBit
	bt	rdx, rax	# *_12, hypercall_info.OsSpecificFields.Mm.ProtectionBit
	jnc	.L138	#,
# handlers.c:712:     long vm_flags = *(long *)(vma + hypercall_info.OsSpecificFields.Vma.FlagsOffset);
	mov	eax, DWORD PTR hypercall_info[rip+11160]	# hypercall_info.OsSpecificFields.Vma.FlagsOffset, hypercall_info.OsSpecificFields.Vma.FlagsOffset
# handlers.c:714:     if (((vm_flags & BIT(hypercall_info.OsSpecificFields.Vma.ProtectionBit)) && !(vm_flags & VM_EXEC))
	mov	esi, DWORD PTR hypercall_info[rip+11180]	# hypercall_info.OsSpecificFields.Vma.ProtectionBit, hypercall_info.OsSpecificFields.Vma.ProtectionBit
# handlers.c:712:     long vm_flags = *(long *)(vma + hypercall_info.OsSpecificFields.Vma.FlagsOffset);
	mov	rdx, QWORD PTR [rax+rdi]	# vm_flags, *_20
	mov	rax, rdx	# _41, vm_flags
	and	eax, 4	# _41,
# handlers.c:714:     if (((vm_flags & BIT(hypercall_info.OsSpecificFields.Vma.ProtectionBit)) && !(vm_flags & VM_EXEC))
	bt	rdx, rsi	# vm_flags, hypercall_info.OsSpecificFields.Vma.ProtectionBit
	jnc	.L140	#,
# handlers.c:714:     if (((vm_flags & BIT(hypercall_info.OsSpecificFields.Vma.ProtectionBit)) && !(vm_flags & VM_EXEC))
	test	rax, rax	# _41
	je	.L141	#,
	jmp	.L138	#
.L140:
# handlers.c:715:         || (!(vm_flags & BIT(hypercall_info.OsSpecificFields.Vma.ProtectionBit)) && (vm_flags & VM_EXEC))) {
	test	rax, rax	# _41
	je	.L138	#,
.L141:
	mov	r8, rdi	# vma, vma
# handlers.c:718:         vmcall_2(det_mprotect_fixup_vma_wants_writenotify, vma, mm);
	mov	edi, 25	#,
	call	vmcall	#
.L138:
# handlers.c:720: }
	pop	rax	#
	.cfi_def_cfa_offset 48
	pop	rdx	#
	.cfi_def_cfa_offset 40
	pop	rsi	#
	.cfi_def_cfa_offset 32
	pop	rdi	#
	.cfi_def_cfa_offset 24
	pop	r8	#
	.cfi_def_cfa_offset 16
	pop	r9	#
	.cfi_def_cfa_offset 8
	ret
	.cfi_endproc
.LFE28:
	.size	mprotect_fixup_vma_wants_writenotify, .-mprotect_fixup_vma_wants_writenotify
	.align 16
	.globl	pre_do_rmdir
	.type	pre_do_rmdir, @function
pre_do_rmdir:
.LFB29:
	.cfi_startproc
	push	rsi	#
	.cfi_def_cfa_offset 16
	.cfi_offset 4, -16
	push	rax	#
	.cfi_def_cfa_offset 24
	.cfi_offset 0, -24
# handlers.c:726:     *skip_call=0;
	mov	rax, QWORD PTR 24[rsp]	# skip_call, skip_call
	mov	QWORD PTR [rax], 0	# *skip_call_2(D),
# handlers.c:727:     *save_pathname=pathname;
	mov	rax, QWORD PTR 32[rsp]	# save_pathname, save_pathname
	mov	QWORD PTR [rax], rsi	# *save_pathname_4(D), pathname
# handlers.c:728: }
	pop	rax	#
	.cfi_def_cfa_offset 16
	pop	rsi	#
	.cfi_def_cfa_offset 8
	ret
	.cfi_endproc
.LFE29:
	.size	pre_do_rmdir, .-pre_do_rmdir
	.align 16
	.globl	do_rmdir
	.type	do_rmdir, @function
do_rmdir:
.LFB30:
	.cfi_startproc
	push	r10	#
	.cfi_def_cfa_offset 16
	.cfi_offset 10, -16
	push	r9	#
	.cfi_def_cfa_offset 24
	.cfi_offset 9, -24
	push	r8	#
	.cfi_def_cfa_offset 32
	.cfi_offset 8, -32
	push	rdi	#
	.cfi_def_cfa_offset 40
	.cfi_offset 5, -40
	push	rax	#
	.cfi_def_cfa_offset 48
	.cfi_offset 0, -48
# handlers.c:734:     long save_rax = __read_reg("rax");
#APP
# 734 "handlers.c" 1
	mov r10, rax	# val
	
# 0 "" 2
# handlers.c:735:     vmcall_3(det_do_rmdir, current_task, save_pathname,save_rax);
#NO_APP
	mov	r8d, DWORD PTR hypercall_info[rip+11232]	# hypercall_info.OsSpecificFields.CurrentTaskOffset, hypercall_info.OsSpecificFields.CurrentTaskOffset
#APP
# 735 "handlers.c" 1
	mov r8, gs:[r8]	# ret, hypercall_info.OsSpecificFields.CurrentTaskOffset
# 0 "" 2
#NO_APP
	mov	r9, QWORD PTR 56[rsp]	# __p2, save_pathname
	mov	edi, 28	#,
	call	vmcall	#
# handlers.c:736: }
	pop	rax	#
	.cfi_def_cfa_offset 40
	pop	rdi	#
	.cfi_def_cfa_offset 32
	pop	r8	#
	.cfi_def_cfa_offset 24
	pop	r9	#
	.cfi_def_cfa_offset 16
	pop	r10	#
	.cfi_def_cfa_offset 8
	ret
	.cfi_endproc
.LFE30:
	.size	do_rmdir, .-do_rmdir
	.align 16
	.globl	pre_sys_sysfs
	.type	pre_sys_sysfs, @function
pre_sys_sysfs:
.LFB31:
	.cfi_startproc
	push	rdi	#
	.cfi_def_cfa_offset 16
	.cfi_offset 5, -16
	push	rsi	#
	.cfi_def_cfa_offset 24
	.cfi_offset 4, -24
	push	rdx	#
	.cfi_def_cfa_offset 32
	.cfi_offset 1, -32
	push	rax	#
	.cfi_def_cfa_offset 40
	.cfi_offset 0, -40
# handlers.c:742:     *skip_call=0;
	mov	rax, QWORD PTR 40[rsp]	# skip_call, skip_call
	mov	QWORD PTR [rax], 0	# *skip_call_5(D),
# handlers.c:743:     *save_option=option;
	mov	rax, QWORD PTR 48[rsp]	# save_option, save_option
	mov	BYTE PTR [rax], dil	# *save_option_8(D), option
# handlers.c:744:     *save_arg1=arg1;
	mov	rax, QWORD PTR 56[rsp]	# save_arg1, save_arg1
	mov	QWORD PTR [rax], rsi	# *save_arg1_11(D), arg1
# handlers.c:745:     *save_arg2=arg2;
	mov	rax, QWORD PTR 64[rsp]	# save_arg2, save_arg2
	mov	QWORD PTR [rax], rdx	# *save_arg2_14(D), arg2
# handlers.c:746: }
	pop	rax	#
	.cfi_def_cfa_offset 32
	pop	rdx	#
	.cfi_def_cfa_offset 24
	pop	rsi	#
	.cfi_def_cfa_offset 16
	pop	rdi	#
	.cfi_def_cfa_offset 8
	ret
	.cfi_endproc
.LFE31:
	.size	pre_sys_sysfs, .-pre_sys_sysfs
	.align 16
	.globl	sys_sysfs
	.type	sys_sysfs, @function
sys_sysfs:
.LFB32:
	.cfi_startproc
	push	r12	#
	.cfi_def_cfa_offset 16
	.cfi_offset 12, -16
	push	r11	#
	.cfi_def_cfa_offset 24
	.cfi_offset 11, -24
	push	r10	#
	.cfi_def_cfa_offset 32
	.cfi_offset 10, -32
	push	r9	#
	.cfi_def_cfa_offset 40
	.cfi_offset 9, -40
	push	r8	#
	.cfi_def_cfa_offset 48
	.cfi_offset 8, -48
	push	rdi	#
	.cfi_def_cfa_offset 56
	.cfi_offset 5, -56
	push	rax	#
	.cfi_def_cfa_offset 64
	.cfi_offset 0, -64
# handlers.c:752:     long x = __read_reg("rax");
#APP
# 752 "handlers.c" 1
	mov r12, rax	# val
	
# 0 "" 2
# handlers.c:753: 	vmcall_5(det_sys_sysfs,current_task,save_option,save_arg1,save_arg2,x);
#NO_APP
	mov	r8d, DWORD PTR hypercall_info[rip+11232]	# hypercall_info.OsSpecificFields.CurrentTaskOffset, hypercall_info.OsSpecificFields.CurrentTaskOffset
#APP
# 753 "handlers.c" 1
	mov r8, gs:[r8]	# ret, hypercall_info.OsSpecificFields.CurrentTaskOffset
# 0 "" 2
#NO_APP
	mov	r9, QWORD PTR 72[rsp]	# __p2, save_option
	mov	r10, QWORD PTR 80[rsp]	# __p3, save_arg1
	mov	r11, QWORD PTR 88[rsp]	# __p4, save_arg2
	mov	edi, 29	#,
	call	vmcall	#
# handlers.c:754: }
	pop	rax	#
	.cfi_def_cfa_offset 56
	pop	rdi	#
	.cfi_def_cfa_offset 48
	pop	r8	#
	.cfi_def_cfa_offset 40
	pop	r9	#
	.cfi_def_cfa_offset 32
	pop	r10	#
	.cfi_def_cfa_offset 24
	pop	r11	#
	.cfi_def_cfa_offset 16
	pop	r12	#
	.cfi_def_cfa_offset 8
	ret
	.cfi_endproc
.LFE32:
	.size	sys_sysfs, .-sys_sysfs
	.align 16
	.globl	sys_read
	.type	sys_read, @function
sys_read:
.LFB33:
	.cfi_startproc
	push	r12	#
	.cfi_def_cfa_offset 16
	.cfi_offset 12, -16
	push	r11	#
	.cfi_def_cfa_offset 24
	.cfi_offset 11, -24
	push	r10	#
	.cfi_def_cfa_offset 32
	.cfi_offset 10, -32
	push	r9	#
	.cfi_def_cfa_offset 40
	.cfi_offset 9, -40
	push	r8	#
	.cfi_def_cfa_offset 48
	.cfi_offset 8, -48
	push	rdi	#
	.cfi_def_cfa_offset 56
	.cfi_offset 5, -56
	push	rax	#
	.cfi_def_cfa_offset 64
	.cfi_offset 0, -64
# handlers.c:760:     long save_rax = __read_reg("rax");
#APP
# 760 "handlers.c" 1
	mov r12, rax	# val
	
# 0 "" 2
# handlers.c:762:     vmcall_5(det_sys_read,current_task,save_fd, save_buf, save_count,save_rax);
#NO_APP
	mov	r8d, DWORD PTR hypercall_info[rip+11232]	# hypercall_info.OsSpecificFields.CurrentTaskOffset, hypercall_info.OsSpecificFields.CurrentTaskOffset
#APP
# 762 "handlers.c" 1
	mov r8, gs:[r8]	# ret, hypercall_info.OsSpecificFields.CurrentTaskOffset
# 0 "" 2
#NO_APP
	mov	r9d, DWORD PTR 72[rsp]	# __p2, save_fd
	mov	r10, QWORD PTR 80[rsp]	# __p3, save_buf
	movsx	r11, DWORD PTR 88[rsp]	# __p4, save_count
	mov	edi, 30	#,
	call	vmcall	#
# handlers.c:763: }
	pop	rax	#
	.cfi_def_cfa_offset 56
	pop	rdi	#
	.cfi_def_cfa_offset 48
	pop	r8	#
	.cfi_def_cfa_offset 40
	pop	r9	#
	.cfi_def_cfa_offset 32
	pop	r10	#
	.cfi_def_cfa_offset 24
	pop	r11	#
	.cfi_def_cfa_offset 16
	pop	r12	#
	.cfi_def_cfa_offset 8
	ret
	.cfi_endproc
.LFE33:
	.size	sys_read, .-sys_read
	.align 16
	.globl	pre_sys_read
	.type	pre_sys_read, @function
pre_sys_read:
.LFB34:
	.cfi_startproc
	push	rdi	#
	.cfi_def_cfa_offset 16
	.cfi_offset 5, -16
	push	rsi	#
	.cfi_def_cfa_offset 24
	.cfi_offset 4, -24
	push	rdx	#
	.cfi_def_cfa_offset 32
	.cfi_offset 1, -32
	push	rax	#
	.cfi_def_cfa_offset 40
	.cfi_offset 0, -40
# handlers.c:769:     *skip_call=0;
	mov	rax, QWORD PTR 40[rsp]	# skip_call, skip_call
	mov	QWORD PTR [rax], 0	# *skip_call_2(D),
# handlers.c:770:     *save_fd=fd;
	mov	rax, QWORD PTR 48[rsp]	# save_fd, save_fd
	mov	DWORD PTR [rax], edi	# *save_fd_4(D), fd
# handlers.c:771:     *save_buf=buf;
	mov	rax, QWORD PTR 56[rsp]	# save_buf, save_buf
	mov	QWORD PTR [rax], rsi	# *save_buf_7(D), buf
# handlers.c:772:     *save_count=count;
	mov	rax, QWORD PTR 64[rsp]	# save_count, save_count
	mov	DWORD PTR [rax], edx	# *save_count_10(D), count
# handlers.c:773: }
	pop	rax	#
	.cfi_def_cfa_offset 32
	pop	rdx	#
	.cfi_def_cfa_offset 24
	pop	rsi	#
	.cfi_def_cfa_offset 16
	pop	rdi	#
	.cfi_def_cfa_offset 8
	ret
	.cfi_endproc
.LFE34:
	.size	pre_sys_read, .-pre_sys_read
	.align 16
	.globl	sys_getppid
	.type	sys_getppid, @function
sys_getppid:
.LFB35:
	.cfi_startproc
	push	r9	#
	.cfi_def_cfa_offset 16
	.cfi_offset 9, -16
	push	r8	#
	.cfi_def_cfa_offset 24
	.cfi_offset 8, -24
	push	rdi	#
	.cfi_def_cfa_offset 32
	.cfi_offset 5, -32
	push	rax	#
	.cfi_def_cfa_offset 40
	.cfi_offset 0, -40
# handlers.c:779:     long save_rax = __read_reg("rax");
#APP
# 779 "handlers.c" 1
	mov r9, rax	# val
	
# 0 "" 2
# handlers.c:781:     vmcall_2(det_sys_getppid,current_task,save_rax);
#NO_APP
	mov	r8d, DWORD PTR hypercall_info[rip+11232]	# hypercall_info.OsSpecificFields.CurrentTaskOffset, hypercall_info.OsSpecificFields.CurrentTaskOffset
#APP
# 781 "handlers.c" 1
	mov r8, gs:[r8]	# ret, hypercall_info.OsSpecificFields.CurrentTaskOffset
# 0 "" 2
#NO_APP
	mov	edi, 31	#,
	call	vmcall	#
# handlers.c:782: }
	pop	rax	#
	.cfi_def_cfa_offset 32
	pop	rdi	#
	.cfi_def_cfa_offset 24
	pop	r8	#
	.cfi_def_cfa_offset 16
	pop	r9	#
	.cfi_def_cfa_offset 8
	ret
	.cfi_endproc
.LFE35:
	.size	sys_getppid, .-sys_getppid
	.align 16
	.globl	pre_sys_getppid
	.type	pre_sys_getppid, @function
pre_sys_getppid:
.LFB36:
	.cfi_startproc
	push	rax	#
	.cfi_def_cfa_offset 16
	.cfi_offset 0, -16
# handlers.c:788:     *skip_call=0;
	mov	rax, QWORD PTR 16[rsp]	# skip_call, skip_call
	mov	QWORD PTR [rax], 0	# *skip_call_2(D),
# handlers.c:789: }
	pop	rax	#
	.cfi_def_cfa_offset 8
	ret
	.cfi_endproc
.LFE36:
	.size	pre_sys_getppid, .-pre_sys_getppid
	.align 16
	.globl	sys_getsid
	.type	sys_getsid, @function
sys_getsid:
.LFB37:
	.cfi_startproc
	push	r10	#
	.cfi_def_cfa_offset 16
	.cfi_offset 10, -16
	push	r9	#
	.cfi_def_cfa_offset 24
	.cfi_offset 9, -24
	push	r8	#
	.cfi_def_cfa_offset 32
	.cfi_offset 8, -32
	push	rdi	#
	.cfi_def_cfa_offset 40
	.cfi_offset 5, -40
	push	rax	#
	.cfi_def_cfa_offset 48
	.cfi_offset 0, -48
# handlers.c:795:     long save_rax = __read_reg("rax");
#APP
# 795 "handlers.c" 1
	mov r10, rax	# val
	
# 0 "" 2
# handlers.c:797:     vmcall_3(det_sys_getsid,current_task,save_pid,save_rax);
#NO_APP
	mov	r8d, DWORD PTR hypercall_info[rip+11232]	# hypercall_info.OsSpecificFields.CurrentTaskOffset, hypercall_info.OsSpecificFields.CurrentTaskOffset
#APP
# 797 "handlers.c" 1
	mov r8, gs:[r8]	# ret, hypercall_info.OsSpecificFields.CurrentTaskOffset
# 0 "" 2
#NO_APP
	movsx	r9, DWORD PTR 56[rsp]	# __p2, save_pid
	mov	edi, 32	#,
	call	vmcall	#
# handlers.c:798: }
	pop	rax	#
	.cfi_def_cfa_offset 40
	pop	rdi	#
	.cfi_def_cfa_offset 32
	pop	r8	#
	.cfi_def_cfa_offset 24
	pop	r9	#
	.cfi_def_cfa_offset 16
	pop	r10	#
	.cfi_def_cfa_offset 8
	ret
	.cfi_endproc
.LFE37:
	.size	sys_getsid, .-sys_getsid
	.align 16
	.globl	pre_sys_getsid
	.type	pre_sys_getsid, @function
pre_sys_getsid:
.LFB38:
	.cfi_startproc
	push	rdi	#
	.cfi_def_cfa_offset 16
	.cfi_offset 5, -16
	push	rax	#
	.cfi_def_cfa_offset 24
	.cfi_offset 0, -24
# handlers.c:804:     *skip_call=0;
	mov	rax, QWORD PTR 24[rsp]	# skip_call, skip_call
	mov	QWORD PTR [rax], 0	# *skip_call_2(D),
# handlers.c:805:     *save_pid=pid;
	mov	rax, QWORD PTR 32[rsp]	# save_pid, save_pid
	mov	DWORD PTR [rax], edi	# *save_pid_4(D), pid
# handlers.c:806: }
	pop	rax	#
	.cfi_def_cfa_offset 16
	pop	rdi	#
	.cfi_def_cfa_offset 8
	ret
	.cfi_endproc
.LFE38:
	.size	pre_sys_getsid, .-pre_sys_getsid
	.align 16
	.globl	sys_getuid
	.type	sys_getuid, @function
sys_getuid:
.LFB39:
	.cfi_startproc
	push	r9	#
	.cfi_def_cfa_offset 16
	.cfi_offset 9, -16
	push	r8	#
	.cfi_def_cfa_offset 24
	.cfi_offset 8, -24
	push	rdi	#
	.cfi_def_cfa_offset 32
	.cfi_offset 5, -32
	push	rax	#
	.cfi_def_cfa_offset 40
	.cfi_offset 0, -40
# handlers.c:812:     long save_rax = __read_reg("rax");
#APP
# 812 "handlers.c" 1
	mov r9, rax	# val
	
# 0 "" 2
# handlers.c:814:     vmcall_2(det_sys_getuid,current_task,save_rax);
#NO_APP
	mov	r8d, DWORD PTR hypercall_info[rip+11232]	# hypercall_info.OsSpecificFields.CurrentTaskOffset, hypercall_info.OsSpecificFields.CurrentTaskOffset
#APP
# 814 "handlers.c" 1
	mov r8, gs:[r8]	# ret, hypercall_info.OsSpecificFields.CurrentTaskOffset
# 0 "" 2
#NO_APP
	mov	edi, 33	#,
	call	vmcall	#
# handlers.c:815: }
	pop	rax	#
	.cfi_def_cfa_offset 32
	pop	rdi	#
	.cfi_def_cfa_offset 24
	pop	r8	#
	.cfi_def_cfa_offset 16
	pop	r9	#
	.cfi_def_cfa_offset 8
	ret
	.cfi_endproc
.LFE39:
	.size	sys_getuid, .-sys_getuid
	.align 16
	.globl	pre_sys_getuid
	.type	pre_sys_getuid, @function
pre_sys_getuid:
.LFB222:
	.cfi_startproc
	push	rax	#
	.cfi_def_cfa_offset 16
	.cfi_offset 0, -16
	mov	rax, QWORD PTR 16[rsp]	# skip_call, skip_call
	mov	QWORD PTR [rax], 0	# *skip_call_8(D),
	pop	rax	#
	.cfi_def_cfa_offset 8
	ret
	.cfi_endproc
.LFE222:
	.size	pre_sys_getuid, .-pre_sys_getuid
	.align 16
	.globl	sys_geteuid
	.type	sys_geteuid, @function
sys_geteuid:
.LFB41:
	.cfi_startproc
# handlers.c:827: {
	push	r9	#
	.cfi_def_cfa_offset 16
	.cfi_offset 9, -16
	push	r8	#
	.cfi_def_cfa_offset 24
	.cfi_offset 8, -24
	push	rdi	#
	.cfi_def_cfa_offset 32
	.cfi_offset 5, -32
	push	rax	#
	.cfi_def_cfa_offset 40
	.cfi_offset 0, -40
# handlers.c:828:     long save_rax = __read_reg("rax");
#APP
# 828 "handlers.c" 1
	mov r9, rax	# val
	
# 0 "" 2
# handlers.c:830:     vmcall_2(det_sys_geteuid,current_task,save_rax);
#NO_APP
	mov	r8d, DWORD PTR hypercall_info[rip+11232]	# hypercall_info.OsSpecificFields.CurrentTaskOffset, hypercall_info.OsSpecificFields.CurrentTaskOffset
#APP
# 830 "handlers.c" 1
	mov r8, gs:[r8]	# ret, hypercall_info.OsSpecificFields.CurrentTaskOffset
# 0 "" 2
#NO_APP
	mov	edi, 34	#,
	call	vmcall	#
# handlers.c:831: }
	pop	rax	#
	.cfi_def_cfa_offset 32
	pop	rdi	#
	.cfi_def_cfa_offset 24
	pop	r8	#
	.cfi_def_cfa_offset 16
	pop	r9	#
	.cfi_def_cfa_offset 8
	ret
	.cfi_endproc
.LFE41:
	.size	sys_geteuid, .-sys_geteuid
	.align 16
	.globl	pre_sys_geteuid
	.type	pre_sys_geteuid, @function
pre_sys_geteuid:
.LFB224:
	.cfi_startproc
	push	rax	#
	.cfi_def_cfa_offset 16
	.cfi_offset 0, -16
	mov	rax, QWORD PTR 16[rsp]	# skip_call, skip_call
	mov	QWORD PTR [rax], 0	# *skip_call_8(D),
	pop	rax	#
	.cfi_def_cfa_offset 8
	ret
	.cfi_endproc
.LFE224:
	.size	pre_sys_geteuid, .-pre_sys_geteuid
	.align 16
	.globl	sys_shutdown
	.type	sys_shutdown, @function
sys_shutdown:
.LFB43:
	.cfi_startproc
# handlers.c:843: {
	push	r11	#
	.cfi_def_cfa_offset 16
	.cfi_offset 11, -16
	push	r10	#
	.cfi_def_cfa_offset 24
	.cfi_offset 10, -24
	push	r9	#
	.cfi_def_cfa_offset 32
	.cfi_offset 9, -32
	push	r8	#
	.cfi_def_cfa_offset 40
	.cfi_offset 8, -40
	push	rdi	#
	.cfi_def_cfa_offset 48
	.cfi_offset 5, -48
	push	rax	#
	.cfi_def_cfa_offset 56
	.cfi_offset 0, -56
# handlers.c:844:     long save_rax = __read_reg("rax");
#APP
# 844 "handlers.c" 1
	mov r11, rax	# val
	
# 0 "" 2
# handlers.c:846:     vmcall_4(det_sys_shutdown,current_task,save_a,save_b,save_rax);
#NO_APP
	mov	r8d, DWORD PTR hypercall_info[rip+11232]	# hypercall_info.OsSpecificFields.CurrentTaskOffset, hypercall_info.OsSpecificFields.CurrentTaskOffset
#APP
# 846 "handlers.c" 1
	mov r8, gs:[r8]	# ret, hypercall_info.OsSpecificFields.CurrentTaskOffset
# 0 "" 2
#NO_APP
	movsx	r9, DWORD PTR 64[rsp]	# __p2, save_a
	movsx	r10, DWORD PTR 72[rsp]	# __p3, save_b
	mov	edi, 35	#,
	call	vmcall	#
# handlers.c:847: }
	pop	rax	#
	.cfi_def_cfa_offset 48
	pop	rdi	#
	.cfi_def_cfa_offset 40
	pop	r8	#
	.cfi_def_cfa_offset 32
	pop	r9	#
	.cfi_def_cfa_offset 24
	pop	r10	#
	.cfi_def_cfa_offset 16
	pop	r11	#
	.cfi_def_cfa_offset 8
	ret
	.cfi_endproc
.LFE43:
	.size	sys_shutdown, .-sys_shutdown
	.align 16
	.globl	pre_sys_shutdown
	.type	pre_sys_shutdown, @function
pre_sys_shutdown:
.LFB44:
	.cfi_startproc
	push	rdi	#
	.cfi_def_cfa_offset 16
	.cfi_offset 5, -16
	push	rsi	#
	.cfi_def_cfa_offset 24
	.cfi_offset 4, -24
	push	rax	#
	.cfi_def_cfa_offset 32
	.cfi_offset 0, -32
# handlers.c:853:     *skip_call=0;
	mov	rax, QWORD PTR 32[rsp]	# skip_call, skip_call
	mov	QWORD PTR [rax], 0	# *skip_call_2(D),
# handlers.c:854:     *save_a=a;
	mov	rax, QWORD PTR 40[rsp]	# save_a, save_a
	mov	DWORD PTR [rax], edi	# *save_a_4(D), a
# handlers.c:855:     *save_b=b;
	mov	rax, QWORD PTR 48[rsp]	# save_b, save_b
	mov	DWORD PTR [rax], esi	# *save_b_7(D), b
# handlers.c:856: }
	pop	rax	#
	.cfi_def_cfa_offset 24
	pop	rsi	#
	.cfi_def_cfa_offset 16
	pop	rdi	#
	.cfi_def_cfa_offset 8
	ret
	.cfi_endproc
.LFE44:
	.size	pre_sys_shutdown, .-pre_sys_shutdown
	.align 16
	.globl	do_sysinfo
	.type	do_sysinfo, @function
do_sysinfo:
.LFB45:
	.cfi_startproc
	push	r10	#
	.cfi_def_cfa_offset 16
	.cfi_offset 10, -16
	push	r9	#
	.cfi_def_cfa_offset 24
	.cfi_offset 9, -24
	push	r8	#
	.cfi_def_cfa_offset 32
	.cfi_offset 8, -32
	push	rdi	#
	.cfi_def_cfa_offset 40
	.cfi_offset 5, -40
	push	rax	#
	.cfi_def_cfa_offset 48
	.cfi_offset 0, -48
# handlers.c:862:     long save_rax = __read_reg("rax");
#APP
# 862 "handlers.c" 1
	mov r10, rax	# val
	
# 0 "" 2
# handlers.c:864:     vmcall_3(det_do_sysinfo,current_task,save_a,save_rax);
#NO_APP
	mov	r8d, DWORD PTR hypercall_info[rip+11232]	# hypercall_info.OsSpecificFields.CurrentTaskOffset, hypercall_info.OsSpecificFields.CurrentTaskOffset
#APP
# 864 "handlers.c" 1
	mov r8, gs:[r8]	# ret, hypercall_info.OsSpecificFields.CurrentTaskOffset
# 0 "" 2
#NO_APP
	mov	r9, QWORD PTR 56[rsp]	# __p2, save_a
	mov	edi, 36	#,
	call	vmcall	#
# handlers.c:865: }
	pop	rax	#
	.cfi_def_cfa_offset 40
	pop	rdi	#
	.cfi_def_cfa_offset 32
	pop	r8	#
	.cfi_def_cfa_offset 24
	pop	r9	#
	.cfi_def_cfa_offset 16
	pop	r10	#
	.cfi_def_cfa_offset 8
	ret
	.cfi_endproc
.LFE45:
	.size	do_sysinfo, .-do_sysinfo
	.align 16
	.globl	pre_do_sysinfo
	.type	pre_do_sysinfo, @function
pre_do_sysinfo:
.LFB46:
	.cfi_startproc
	push	rdi	#
	.cfi_def_cfa_offset 16
	.cfi_offset 5, -16
	push	rax	#
	.cfi_def_cfa_offset 24
	.cfi_offset 0, -24
# handlers.c:871:     *skip_call=0;
	mov	rax, QWORD PTR 24[rsp]	# skip_call, skip_call
	mov	QWORD PTR [rax], 0	# *skip_call_2(D),
# handlers.c:872:     *save_a=a;
	mov	rax, QWORD PTR 32[rsp]	# save_a, save_a
	mov	QWORD PTR [rax], rdi	# *save_a_4(D), a
# handlers.c:873: }
	pop	rax	#
	.cfi_def_cfa_offset 16
	pop	rdi	#
	.cfi_def_cfa_offset 8
	ret
	.cfi_endproc
.LFE46:
	.size	pre_do_sysinfo, .-pre_do_sysinfo
	.align 16
	.globl	sys_capget
	.type	sys_capget, @function
sys_capget:
.LFB47:
	.cfi_startproc
	push	r11	#
	.cfi_def_cfa_offset 16
	.cfi_offset 11, -16
	push	r10	#
	.cfi_def_cfa_offset 24
	.cfi_offset 10, -24
	push	r9	#
	.cfi_def_cfa_offset 32
	.cfi_offset 9, -32
	push	r8	#
	.cfi_def_cfa_offset 40
	.cfi_offset 8, -40
	push	rdi	#
	.cfi_def_cfa_offset 48
	.cfi_offset 5, -48
	push	rax	#
	.cfi_def_cfa_offset 56
	.cfi_offset 0, -56
# handlers.c:879:     long save_rax = __read_reg("rax");
#APP
# 879 "handlers.c" 1
	mov r11, rax	# val
	
# 0 "" 2
# handlers.c:881:     vmcall_4(det_sys_capget,current_task,save_header,save_dataptr,save_rax);
#NO_APP
	mov	r8d, DWORD PTR hypercall_info[rip+11232]	# hypercall_info.OsSpecificFields.CurrentTaskOffset, hypercall_info.OsSpecificFields.CurrentTaskOffset
#APP
# 881 "handlers.c" 1
	mov r8, gs:[r8]	# ret, hypercall_info.OsSpecificFields.CurrentTaskOffset
# 0 "" 2
#NO_APP
	mov	r9, QWORD PTR 64[rsp]	# __p2, save_header
	mov	r10, QWORD PTR 72[rsp]	# __p3, save_dataptr
	mov	edi, 37	#,
	call	vmcall	#
# handlers.c:882: }
	pop	rax	#
	.cfi_def_cfa_offset 48
	pop	rdi	#
	.cfi_def_cfa_offset 40
	pop	r8	#
	.cfi_def_cfa_offset 32
	pop	r9	#
	.cfi_def_cfa_offset 24
	pop	r10	#
	.cfi_def_cfa_offset 16
	pop	r11	#
	.cfi_def_cfa_offset 8
	ret
	.cfi_endproc
.LFE47:
	.size	sys_capget, .-sys_capget
	.align 16
	.globl	pre_sys_capget
	.type	pre_sys_capget, @function
pre_sys_capget:
.LFB48:
	.cfi_startproc
	push	rdi	#
	.cfi_def_cfa_offset 16
	.cfi_offset 5, -16
	push	rsi	#
	.cfi_def_cfa_offset 24
	.cfi_offset 4, -24
	push	rax	#
	.cfi_def_cfa_offset 32
	.cfi_offset 0, -32
# handlers.c:888:     *skip_call=0;
	mov	rax, QWORD PTR 32[rsp]	# skip_call, skip_call
	mov	QWORD PTR [rax], 0	# *skip_call_2(D),
# handlers.c:889:     *save_header=header;
	mov	rax, QWORD PTR 40[rsp]	# save_header, save_header
	mov	QWORD PTR [rax], rdi	# *save_header_4(D), header
# handlers.c:890:     *save_dataptr=dataptr;
	mov	rax, QWORD PTR 48[rsp]	# save_dataptr, save_dataptr
	mov	QWORD PTR [rax], rsi	# *save_dataptr_7(D), dataptr
# handlers.c:891: }
	pop	rax	#
	.cfi_def_cfa_offset 24
	pop	rsi	#
	.cfi_def_cfa_offset 16
	pop	rdi	#
	.cfi_def_cfa_offset 8
	ret
	.cfi_endproc
.LFE48:
	.size	pre_sys_capget, .-pre_sys_capget
	.align 16
	.globl	sys_capset
	.type	sys_capset, @function
sys_capset:
.LFB49:
	.cfi_startproc
	push	r11	#
	.cfi_def_cfa_offset 16
	.cfi_offset 11, -16
	push	r10	#
	.cfi_def_cfa_offset 24
	.cfi_offset 10, -24
	push	r9	#
	.cfi_def_cfa_offset 32
	.cfi_offset 9, -32
	push	r8	#
	.cfi_def_cfa_offset 40
	.cfi_offset 8, -40
	push	rdi	#
	.cfi_def_cfa_offset 48
	.cfi_offset 5, -48
	push	rax	#
	.cfi_def_cfa_offset 56
	.cfi_offset 0, -56
# handlers.c:897:     long save_rax = __read_reg("rax");
#APP
# 897 "handlers.c" 1
	mov r11, rax	# val
	
# 0 "" 2
# handlers.c:899:     vmcall_4(det_sys_capset,current_task,save_header,save_data,save_rax);
#NO_APP
	mov	r8d, DWORD PTR hypercall_info[rip+11232]	# hypercall_info.OsSpecificFields.CurrentTaskOffset, hypercall_info.OsSpecificFields.CurrentTaskOffset
#APP
# 899 "handlers.c" 1
	mov r8, gs:[r8]	# ret, hypercall_info.OsSpecificFields.CurrentTaskOffset
# 0 "" 2
#NO_APP
	mov	r9, QWORD PTR 64[rsp]	# __p2, save_header
	mov	r10, QWORD PTR 72[rsp]	# __p3, save_data
	mov	edi, 38	#,
	call	vmcall	#
# handlers.c:900: }
	pop	rax	#
	.cfi_def_cfa_offset 48
	pop	rdi	#
	.cfi_def_cfa_offset 40
	pop	r8	#
	.cfi_def_cfa_offset 32
	pop	r9	#
	.cfi_def_cfa_offset 24
	pop	r10	#
	.cfi_def_cfa_offset 16
	pop	r11	#
	.cfi_def_cfa_offset 8
	ret
	.cfi_endproc
.LFE49:
	.size	sys_capset, .-sys_capset
	.align 16
	.globl	pre_sys_capset
	.type	pre_sys_capset, @function
pre_sys_capset:
.LFB238:
	.cfi_startproc
	push	rdi	#
	.cfi_def_cfa_offset 16
	.cfi_offset 5, -16
	push	rsi	#
	.cfi_def_cfa_offset 24
	.cfi_offset 4, -24
	push	rax	#
	.cfi_def_cfa_offset 32
	.cfi_offset 0, -32
	mov	rax, QWORD PTR 32[rsp]	# skip_call, skip_call
	mov	QWORD PTR [rax], 0	# *skip_call_8(D),
	mov	rax, QWORD PTR 40[rsp]	# save_header, save_header
	mov	QWORD PTR [rax], rdi	# *save_header_9(D), header
	mov	rax, QWORD PTR 48[rsp]	# save_data, save_data
	mov	QWORD PTR [rax], rsi	# *save_data_10(D), data
	pop	rax	#
	.cfi_def_cfa_offset 24
	pop	rsi	#
	.cfi_def_cfa_offset 16
	pop	rdi	#
	.cfi_def_cfa_offset 8
	ret
	.cfi_endproc
.LFE238:
	.size	pre_sys_capset, .-pre_sys_capset
	.align 16
	.globl	sys_statfs
	.type	sys_statfs, @function
sys_statfs:
.LFB51:
	.cfi_startproc
# handlers.c:914: {
	push	r11	#
	.cfi_def_cfa_offset 16
	.cfi_offset 11, -16
	push	r10	#
	.cfi_def_cfa_offset 24
	.cfi_offset 10, -24
	push	r9	#
	.cfi_def_cfa_offset 32
	.cfi_offset 9, -32
	push	r8	#
	.cfi_def_cfa_offset 40
	.cfi_offset 8, -40
	push	rdi	#
	.cfi_def_cfa_offset 48
	.cfi_offset 5, -48
	push	rax	#
	.cfi_def_cfa_offset 56
	.cfi_offset 0, -56
# handlers.c:915:     long save_rax = __read_reg("rax");
#APP
# 915 "handlers.c" 1
	mov r11, rax	# val
	
# 0 "" 2
# handlers.c:917:     vmcall_4(det_sys_statfs,current_task,save_path,save_buf,save_rax);
#NO_APP
	mov	r8d, DWORD PTR hypercall_info[rip+11232]	# hypercall_info.OsSpecificFields.CurrentTaskOffset, hypercall_info.OsSpecificFields.CurrentTaskOffset
#APP
# 917 "handlers.c" 1
	mov r8, gs:[r8]	# ret, hypercall_info.OsSpecificFields.CurrentTaskOffset
# 0 "" 2
#NO_APP
	mov	r9, QWORD PTR 64[rsp]	# __p2, save_path
	mov	r10, QWORD PTR 72[rsp]	# __p3, save_buf
	mov	edi, 39	#,
	call	vmcall	#
# handlers.c:918: }
	pop	rax	#
	.cfi_def_cfa_offset 48
	pop	rdi	#
	.cfi_def_cfa_offset 40
	pop	r8	#
	.cfi_def_cfa_offset 32
	pop	r9	#
	.cfi_def_cfa_offset 24
	pop	r10	#
	.cfi_def_cfa_offset 16
	pop	r11	#
	.cfi_def_cfa_offset 8
	ret
	.cfi_endproc
.LFE51:
	.size	sys_statfs, .-sys_statfs
	.align 16
	.globl	pre_sys_statfs
	.type	pre_sys_statfs, @function
pre_sys_statfs:
.LFB52:
	.cfi_startproc
	push	rdi	#
	.cfi_def_cfa_offset 16
	.cfi_offset 5, -16
	push	rsi	#
	.cfi_def_cfa_offset 24
	.cfi_offset 4, -24
	push	rax	#
	.cfi_def_cfa_offset 32
	.cfi_offset 0, -32
# handlers.c:924:     *skip_call=0;
	mov	rax, QWORD PTR 32[rsp]	# skip_call, skip_call
	mov	QWORD PTR [rax], 0	# *skip_call_2(D),
# handlers.c:925:     *save_path=path;
	mov	rax, QWORD PTR 40[rsp]	# save_path, save_path
	mov	QWORD PTR [rax], rdi	# *save_path_4(D), path
# handlers.c:926:     *save_buf=buf;
	mov	rax, QWORD PTR 48[rsp]	# save_buf, save_buf
	mov	QWORD PTR [rax], rsi	# *save_buf_7(D), buf
# handlers.c:927: }
	pop	rax	#
	.cfi_def_cfa_offset 24
	pop	rsi	#
	.cfi_def_cfa_offset 16
	pop	rdi	#
	.cfi_def_cfa_offset 8
	ret
	.cfi_endproc
.LFE52:
	.size	pre_sys_statfs, .-pre_sys_statfs
	.align 16
	.globl	sys_fstatfs
	.type	sys_fstatfs, @function
sys_fstatfs:
.LFB53:
	.cfi_startproc
	push	r11	#
	.cfi_def_cfa_offset 16
	.cfi_offset 11, -16
	push	r10	#
	.cfi_def_cfa_offset 24
	.cfi_offset 10, -24
	push	r9	#
	.cfi_def_cfa_offset 32
	.cfi_offset 9, -32
	push	r8	#
	.cfi_def_cfa_offset 40
	.cfi_offset 8, -40
	push	rdi	#
	.cfi_def_cfa_offset 48
	.cfi_offset 5, -48
	push	rax	#
	.cfi_def_cfa_offset 56
	.cfi_offset 0, -56
# handlers.c:933:     long save_rax = __read_reg("rax");
#APP
# 933 "handlers.c" 1
	mov r11, rax	# val
	
# 0 "" 2
# handlers.c:935:     vmcall_4(det_sys_fstatfs,current_task,save_fd,save_buf,save_rax);
#NO_APP
	mov	r8d, DWORD PTR hypercall_info[rip+11232]	# hypercall_info.OsSpecificFields.CurrentTaskOffset, hypercall_info.OsSpecificFields.CurrentTaskOffset
#APP
# 935 "handlers.c" 1
	mov r8, gs:[r8]	# ret, hypercall_info.OsSpecificFields.CurrentTaskOffset
# 0 "" 2
#NO_APP
	mov	r9d, DWORD PTR 64[rsp]	# __p2, save_fd
	mov	r10, QWORD PTR 72[rsp]	# __p3, save_buf
	mov	edi, 40	#,
	call	vmcall	#
# handlers.c:936: }
	pop	rax	#
	.cfi_def_cfa_offset 48
	pop	rdi	#
	.cfi_def_cfa_offset 40
	pop	r8	#
	.cfi_def_cfa_offset 32
	pop	r9	#
	.cfi_def_cfa_offset 24
	pop	r10	#
	.cfi_def_cfa_offset 16
	pop	r11	#
	.cfi_def_cfa_offset 8
	ret
	.cfi_endproc
.LFE53:
	.size	sys_fstatfs, .-sys_fstatfs
	.align 16
	.globl	pre_sys_fstatfs
	.type	pre_sys_fstatfs, @function
pre_sys_fstatfs:
.LFB54:
	.cfi_startproc
	push	rdi	#
	.cfi_def_cfa_offset 16
	.cfi_offset 5, -16
	push	rsi	#
	.cfi_def_cfa_offset 24
	.cfi_offset 4, -24
	push	rax	#
	.cfi_def_cfa_offset 32
	.cfi_offset 0, -32
# handlers.c:942:     *skip_call=0;
	mov	rax, QWORD PTR 32[rsp]	# skip_call, skip_call
	mov	QWORD PTR [rax], 0	# *skip_call_2(D),
# handlers.c:943:     *save_fd=fd;
	mov	rax, QWORD PTR 40[rsp]	# save_fd, save_fd
	mov	DWORD PTR [rax], edi	# *save_fd_4(D), fd
# handlers.c:944:     *save_buf=buf;
	mov	rax, QWORD PTR 48[rsp]	# save_buf, save_buf
	mov	QWORD PTR [rax], rsi	# *save_buf_7(D), buf
# handlers.c:945: }
	pop	rax	#
	.cfi_def_cfa_offset 24
	pop	rsi	#
	.cfi_def_cfa_offset 16
	pop	rdi	#
	.cfi_def_cfa_offset 8
	ret
	.cfi_endproc
.LFE54:
	.size	pre_sys_fstatfs, .-pre_sys_fstatfs
	.align 16
	.globl	sys_setsid
	.type	sys_setsid, @function
sys_setsid:
.LFB55:
	.cfi_startproc
	push	r9	#
	.cfi_def_cfa_offset 16
	.cfi_offset 9, -16
	push	r8	#
	.cfi_def_cfa_offset 24
	.cfi_offset 8, -24
	push	rdi	#
	.cfi_def_cfa_offset 32
	.cfi_offset 5, -32
	push	rax	#
	.cfi_def_cfa_offset 40
	.cfi_offset 0, -40
# handlers.c:951:     long save_rax = __read_reg("rax");
#APP
# 951 "handlers.c" 1
	mov r9, rax	# val
	
# 0 "" 2
# handlers.c:953:     vmcall_2(det_sys_setsid,current_task,save_rax);
#NO_APP
	mov	r8d, DWORD PTR hypercall_info[rip+11232]	# hypercall_info.OsSpecificFields.CurrentTaskOffset, hypercall_info.OsSpecificFields.CurrentTaskOffset
#APP
# 953 "handlers.c" 1
	mov r8, gs:[r8]	# ret, hypercall_info.OsSpecificFields.CurrentTaskOffset
# 0 "" 2
#NO_APP
	mov	edi, 41	#,
	call	vmcall	#
# handlers.c:954: }
	pop	rax	#
	.cfi_def_cfa_offset 32
	pop	rdi	#
	.cfi_def_cfa_offset 24
	pop	r8	#
	.cfi_def_cfa_offset 16
	pop	r9	#
	.cfi_def_cfa_offset 8
	ret
	.cfi_endproc
.LFE55:
	.size	sys_setsid, .-sys_setsid
	.align 16
	.globl	pre_sys_setsid
	.type	pre_sys_setsid, @function
pre_sys_setsid:
.LFB226:
	.cfi_startproc
	push	rax	#
	.cfi_def_cfa_offset 16
	.cfi_offset 0, -16
	mov	rax, QWORD PTR 16[rsp]	# skip_call, skip_call
	mov	QWORD PTR [rax], 0	# *skip_call_8(D),
	pop	rax	#
	.cfi_def_cfa_offset 8
	ret
	.cfi_endproc
.LFE226:
	.size	pre_sys_setsid, .-pre_sys_setsid
	.align 16
	.globl	sys_seccomp
	.type	sys_seccomp, @function
sys_seccomp:
.LFB57:
	.cfi_startproc
# handlers.c:966: {
	push	r12	#
	.cfi_def_cfa_offset 16
	.cfi_offset 12, -16
	push	r11	#
	.cfi_def_cfa_offset 24
	.cfi_offset 11, -24
	push	r10	#
	.cfi_def_cfa_offset 32
	.cfi_offset 10, -32
	push	r9	#
	.cfi_def_cfa_offset 40
	.cfi_offset 9, -40
	push	r8	#
	.cfi_def_cfa_offset 48
	.cfi_offset 8, -48
	push	rdi	#
	.cfi_def_cfa_offset 56
	.cfi_offset 5, -56
	push	rax	#
	.cfi_def_cfa_offset 64
	.cfi_offset 0, -64
# handlers.c:967:     long save_rax = __read_reg("rax");
#APP
# 967 "handlers.c" 1
	mov r12, rax	# val
	
# 0 "" 2
# handlers.c:969:     vmcall_5(det_sys_seccomp,current_task,save_op,save_flags,save_uargs,save_rax);
#NO_APP
	mov	r8d, DWORD PTR hypercall_info[rip+11232]	# hypercall_info.OsSpecificFields.CurrentTaskOffset, hypercall_info.OsSpecificFields.CurrentTaskOffset
#APP
# 969 "handlers.c" 1
	mov r8, gs:[r8]	# ret, hypercall_info.OsSpecificFields.CurrentTaskOffset
# 0 "" 2
#NO_APP
	mov	r9d, DWORD PTR 72[rsp]	# __p2, save_op
	mov	r10d, DWORD PTR 80[rsp]	# __p3, save_flags
	mov	r11, QWORD PTR 88[rsp]	# __p4, save_uargs
	mov	edi, 42	#,
	call	vmcall	#
# handlers.c:970: }
	pop	rax	#
	.cfi_def_cfa_offset 56
	pop	rdi	#
	.cfi_def_cfa_offset 48
	pop	r8	#
	.cfi_def_cfa_offset 40
	pop	r9	#
	.cfi_def_cfa_offset 32
	pop	r10	#
	.cfi_def_cfa_offset 24
	pop	r11	#
	.cfi_def_cfa_offset 16
	pop	r12	#
	.cfi_def_cfa_offset 8
	ret
	.cfi_endproc
.LFE57:
	.size	sys_seccomp, .-sys_seccomp
	.align 16
	.globl	pre_sys_seccomp
	.type	pre_sys_seccomp, @function
pre_sys_seccomp:
.LFB58:
	.cfi_startproc
	push	rdi	#
	.cfi_def_cfa_offset 16
	.cfi_offset 5, -16
	push	rsi	#
	.cfi_def_cfa_offset 24
	.cfi_offset 4, -24
	push	rdx	#
	.cfi_def_cfa_offset 32
	.cfi_offset 1, -32
	push	rax	#
	.cfi_def_cfa_offset 40
	.cfi_offset 0, -40
# handlers.c:976:     *skip_call=0;
	mov	rax, QWORD PTR 40[rsp]	# skip_call, skip_call
	mov	QWORD PTR [rax], 0	# *skip_call_2(D),
# handlers.c:977:     *save_op=op;
	mov	rax, QWORD PTR 48[rsp]	# save_op, save_op
	mov	DWORD PTR [rax], edi	# *save_op_4(D), op
# handlers.c:978:     *save_flags=flags;
	mov	rax, QWORD PTR 56[rsp]	# save_flags, save_flags
	mov	DWORD PTR [rax], esi	# *save_flags_7(D), flags
# handlers.c:979:     *save_uargs=uargs;
	mov	rax, QWORD PTR 64[rsp]	# save_uargs, save_uargs
	mov	QWORD PTR [rax], rdx	# *save_uargs_10(D), uargs
# handlers.c:980: }
	pop	rax	#
	.cfi_def_cfa_offset 32
	pop	rdx	#
	.cfi_def_cfa_offset 24
	pop	rsi	#
	.cfi_def_cfa_offset 16
	pop	rdi	#
	.cfi_def_cfa_offset 8
	ret
	.cfi_endproc
.LFE58:
	.size	pre_sys_seccomp, .-pre_sys_seccomp
	.align 16
	.globl	sys_tgkill
	.type	sys_tgkill, @function
sys_tgkill:
.LFB59:
	.cfi_startproc
	push	r12	#
	.cfi_def_cfa_offset 16
	.cfi_offset 12, -16
	push	r11	#
	.cfi_def_cfa_offset 24
	.cfi_offset 11, -24
	push	r10	#
	.cfi_def_cfa_offset 32
	.cfi_offset 10, -32
	push	r9	#
	.cfi_def_cfa_offset 40
	.cfi_offset 9, -40
	push	r8	#
	.cfi_def_cfa_offset 48
	.cfi_offset 8, -48
	push	rdi	#
	.cfi_def_cfa_offset 56
	.cfi_offset 5, -56
	push	rax	#
	.cfi_def_cfa_offset 64
	.cfi_offset 0, -64
# handlers.c:986:     long save_rax = __read_reg("rax");
#APP
# 986 "handlers.c" 1
	mov r12, rax	# val
	
# 0 "" 2
# handlers.c:988:     vmcall_5(det_sys_tgkill,current_task,save_tgid,save_pid,save_sig,save_rax);
#NO_APP
	mov	r8d, DWORD PTR hypercall_info[rip+11232]	# hypercall_info.OsSpecificFields.CurrentTaskOffset, hypercall_info.OsSpecificFields.CurrentTaskOffset
#APP
# 988 "handlers.c" 1
	mov r8, gs:[r8]	# ret, hypercall_info.OsSpecificFields.CurrentTaskOffset
# 0 "" 2
#NO_APP
	movsx	r9, DWORD PTR 72[rsp]	# __p2, save_tgid
	movsx	r10, DWORD PTR 80[rsp]	# __p3, save_pid
	movsx	r11, DWORD PTR 88[rsp]	# __p4, save_sig
	mov	edi, 43	#,
	call	vmcall	#
# handlers.c:989: }
	pop	rax	#
	.cfi_def_cfa_offset 56
	pop	rdi	#
	.cfi_def_cfa_offset 48
	pop	r8	#
	.cfi_def_cfa_offset 40
	pop	r9	#
	.cfi_def_cfa_offset 32
	pop	r10	#
	.cfi_def_cfa_offset 24
	pop	r11	#
	.cfi_def_cfa_offset 16
	pop	r12	#
	.cfi_def_cfa_offset 8
	ret
	.cfi_endproc
.LFE59:
	.size	sys_tgkill, .-sys_tgkill
	.align 16
	.globl	pre_sys_tgkill
	.type	pre_sys_tgkill, @function
pre_sys_tgkill:
.LFB60:
	.cfi_startproc
	push	rdi	#
	.cfi_def_cfa_offset 16
	.cfi_offset 5, -16
	push	rsi	#
	.cfi_def_cfa_offset 24
	.cfi_offset 4, -24
	push	rdx	#
	.cfi_def_cfa_offset 32
	.cfi_offset 1, -32
	push	rax	#
	.cfi_def_cfa_offset 40
	.cfi_offset 0, -40
# handlers.c:995:     *skip_call=0;
	mov	rax, QWORD PTR 40[rsp]	# skip_call, skip_call
	mov	QWORD PTR [rax], 0	# *skip_call_2(D),
# handlers.c:996:     *save_tgid=tgid;
	mov	rax, QWORD PTR 48[rsp]	# save_tgid, save_tgid
	mov	DWORD PTR [rax], edi	# *save_tgid_4(D), tgid
# handlers.c:997:     *save_pid=pid;
	mov	rax, QWORD PTR 56[rsp]	# save_pid, save_pid
	mov	DWORD PTR [rax], esi	# *save_pid_7(D), pid
# handlers.c:998:     *save_sig=sig;
	mov	rax, QWORD PTR 64[rsp]	# save_sig, save_sig
	mov	DWORD PTR [rax], edx	# *save_sig_10(D), sig
# handlers.c:999: }
	pop	rax	#
	.cfi_def_cfa_offset 32
	pop	rdx	#
	.cfi_def_cfa_offset 24
	pop	rsi	#
	.cfi_def_cfa_offset 16
	pop	rdi	#
	.cfi_def_cfa_offset 8
	ret
	.cfi_endproc
.LFE60:
	.size	pre_sys_tgkill, .-pre_sys_tgkill
	.align 16
	.globl	sys_tkill
	.type	sys_tkill, @function
sys_tkill:
.LFB61:
	.cfi_startproc
	push	r11	#
	.cfi_def_cfa_offset 16
	.cfi_offset 11, -16
	push	r10	#
	.cfi_def_cfa_offset 24
	.cfi_offset 10, -24
	push	r9	#
	.cfi_def_cfa_offset 32
	.cfi_offset 9, -32
	push	r8	#
	.cfi_def_cfa_offset 40
	.cfi_offset 8, -40
	push	rdi	#
	.cfi_def_cfa_offset 48
	.cfi_offset 5, -48
	push	rax	#
	.cfi_def_cfa_offset 56
	.cfi_offset 0, -56
# handlers.c:1005:     long save_rax = __read_reg("rax");
#APP
# 1005 "handlers.c" 1
	mov r11, rax	# val
	
# 0 "" 2
# handlers.c:1007:     vmcall_4(det_sys_tkill,current_task,save_pid,save_sig,save_rax);
#NO_APP
	mov	r8d, DWORD PTR hypercall_info[rip+11232]	# hypercall_info.OsSpecificFields.CurrentTaskOffset, hypercall_info.OsSpecificFields.CurrentTaskOffset
#APP
# 1007 "handlers.c" 1
	mov r8, gs:[r8]	# ret, hypercall_info.OsSpecificFields.CurrentTaskOffset
# 0 "" 2
#NO_APP
	movsx	r9, DWORD PTR 64[rsp]	# __p2, save_pid
	movsx	r10, DWORD PTR 72[rsp]	# __p3, save_sig
	mov	edi, 44	#,
	call	vmcall	#
# handlers.c:1008: }
	pop	rax	#
	.cfi_def_cfa_offset 48
	pop	rdi	#
	.cfi_def_cfa_offset 40
	pop	r8	#
	.cfi_def_cfa_offset 32
	pop	r9	#
	.cfi_def_cfa_offset 24
	pop	r10	#
	.cfi_def_cfa_offset 16
	pop	r11	#
	.cfi_def_cfa_offset 8
	ret
	.cfi_endproc
.LFE61:
	.size	sys_tkill, .-sys_tkill
	.align 16
	.globl	pre_sys_tkill
	.type	pre_sys_tkill, @function
pre_sys_tkill:
.LFB236:
	.cfi_startproc
	push	rdi	#
	.cfi_def_cfa_offset 16
	.cfi_offset 5, -16
	push	rsi	#
	.cfi_def_cfa_offset 24
	.cfi_offset 4, -24
	push	rax	#
	.cfi_def_cfa_offset 32
	.cfi_offset 0, -32
	mov	rax, QWORD PTR 32[rsp]	# skip_call, skip_call
	mov	QWORD PTR [rax], 0	# *skip_call_8(D),
	mov	rax, QWORD PTR 40[rsp]	# save_pid, save_pid
	mov	DWORD PTR [rax], edi	# *save_pid_9(D), pid
	mov	rax, QWORD PTR 48[rsp]	# save_sig, save_sig
	mov	DWORD PTR [rax], esi	# *save_sig_10(D), sig
	pop	rax	#
	.cfi_def_cfa_offset 24
	pop	rsi	#
	.cfi_def_cfa_offset 16
	pop	rdi	#
	.cfi_def_cfa_offset 8
	ret
	.cfi_endproc
.LFE236:
	.size	pre_sys_tkill, .-pre_sys_tkill
	.align 16
	.globl	sys_ustat
	.type	sys_ustat, @function
sys_ustat:
.LFB63:
	.cfi_startproc
# handlers.c:1022: {
	push	r11	#
	.cfi_def_cfa_offset 16
	.cfi_offset 11, -16
	push	r10	#
	.cfi_def_cfa_offset 24
	.cfi_offset 10, -24
	push	r9	#
	.cfi_def_cfa_offset 32
	.cfi_offset 9, -32
	push	r8	#
	.cfi_def_cfa_offset 40
	.cfi_offset 8, -40
	push	rdi	#
	.cfi_def_cfa_offset 48
	.cfi_offset 5, -48
	push	rax	#
	.cfi_def_cfa_offset 56
	.cfi_offset 0, -56
# handlers.c:1023:     long save_rax = __read_reg("rax");
#APP
# 1023 "handlers.c" 1
	mov r11, rax	# val
	
# 0 "" 2
# handlers.c:1025:     vmcall_4(det_sys_ustat,current_task,save_dev,save_ubuf,save_rax);
#NO_APP
	mov	r8d, DWORD PTR hypercall_info[rip+11232]	# hypercall_info.OsSpecificFields.CurrentTaskOffset, hypercall_info.OsSpecificFields.CurrentTaskOffset
#APP
# 1025 "handlers.c" 1
	mov r8, gs:[r8]	# ret, hypercall_info.OsSpecificFields.CurrentTaskOffset
# 0 "" 2
#NO_APP
	mov	r9d, DWORD PTR 64[rsp]	# __p2, save_dev
	mov	r10, QWORD PTR 72[rsp]	# __p3, save_ubuf
	mov	edi, 45	#,
	call	vmcall	#
# handlers.c:1026: }
	pop	rax	#
	.cfi_def_cfa_offset 48
	pop	rdi	#
	.cfi_def_cfa_offset 40
	pop	r8	#
	.cfi_def_cfa_offset 32
	pop	r9	#
	.cfi_def_cfa_offset 24
	pop	r10	#
	.cfi_def_cfa_offset 16
	pop	r11	#
	.cfi_def_cfa_offset 8
	ret
	.cfi_endproc
.LFE63:
	.size	sys_ustat, .-sys_ustat
	.align 16
	.globl	pre_sys_ustat
	.type	pre_sys_ustat, @function
pre_sys_ustat:
.LFB248:
	.cfi_startproc
	push	rdi	#
	.cfi_def_cfa_offset 16
	.cfi_offset 5, -16
	push	rsi	#
	.cfi_def_cfa_offset 24
	.cfi_offset 4, -24
	push	rax	#
	.cfi_def_cfa_offset 32
	.cfi_offset 0, -32
	mov	rax, QWORD PTR 32[rsp]	# skip_call, skip_call
	mov	QWORD PTR [rax], 0	# *skip_call_8(D),
	mov	rax, QWORD PTR 40[rsp]	# save_dev, save_dev
	mov	DWORD PTR [rax], edi	# *save_dev_9(D), dev
	mov	rax, QWORD PTR 48[rsp]	# save_ubuf, save_ubuf
	mov	QWORD PTR [rax], rsi	# *save_ubuf_10(D), ubuf
	pop	rax	#
	.cfi_def_cfa_offset 24
	pop	rsi	#
	.cfi_def_cfa_offset 16
	pop	rdi	#
	.cfi_def_cfa_offset 8
	ret
	.cfi_endproc
.LFE248:
	.size	pre_sys_ustat, .-pre_sys_ustat
	.align 16
	.globl	sys_poll
	.type	sys_poll, @function
sys_poll:
.LFB65:
	.cfi_startproc
# handlers.c:1040: {
	push	r12	#
	.cfi_def_cfa_offset 16
	.cfi_offset 12, -16
	push	r11	#
	.cfi_def_cfa_offset 24
	.cfi_offset 11, -24
	push	r10	#
	.cfi_def_cfa_offset 32
	.cfi_offset 10, -32
	push	r9	#
	.cfi_def_cfa_offset 40
	.cfi_offset 9, -40
	push	r8	#
	.cfi_def_cfa_offset 48
	.cfi_offset 8, -48
	push	rdi	#
	.cfi_def_cfa_offset 56
	.cfi_offset 5, -56
	push	rax	#
	.cfi_def_cfa_offset 64
	.cfi_offset 0, -64
# handlers.c:1041:     long save_rax = __read_reg("rax");
#APP
# 1041 "handlers.c" 1
	mov r12, rax	# val
	
# 0 "" 2
# handlers.c:1043:     vmcall_5(det_sys_poll,current_task,save_ufds,save_nfds,save_timeout,save_rax);
#NO_APP
	mov	r8d, DWORD PTR hypercall_info[rip+11232]	# hypercall_info.OsSpecificFields.CurrentTaskOffset, hypercall_info.OsSpecificFields.CurrentTaskOffset
#APP
# 1043 "handlers.c" 1
	mov r8, gs:[r8]	# ret, hypercall_info.OsSpecificFields.CurrentTaskOffset
# 0 "" 2
#NO_APP
	mov	r9, QWORD PTR 72[rsp]	# __p2, save_ufds
	mov	r10d, DWORD PTR 80[rsp]	# __p3, save_nfds
	movsx	r11, DWORD PTR 88[rsp]	# __p4, save_timeout
	mov	edi, 46	#,
	call	vmcall	#
# handlers.c:1044: }
	pop	rax	#
	.cfi_def_cfa_offset 56
	pop	rdi	#
	.cfi_def_cfa_offset 48
	pop	r8	#
	.cfi_def_cfa_offset 40
	pop	r9	#
	.cfi_def_cfa_offset 32
	pop	r10	#
	.cfi_def_cfa_offset 24
	pop	r11	#
	.cfi_def_cfa_offset 16
	pop	r12	#
	.cfi_def_cfa_offset 8
	ret
	.cfi_endproc
.LFE65:
	.size	sys_poll, .-sys_poll
	.align 16
	.globl	pre_sys_poll
	.type	pre_sys_poll, @function
pre_sys_poll:
.LFB66:
	.cfi_startproc
	push	rdi	#
	.cfi_def_cfa_offset 16
	.cfi_offset 5, -16
	push	rdx	#
	.cfi_def_cfa_offset 24
	.cfi_offset 1, -24
	push	rax	#
	.cfi_def_cfa_offset 32
	.cfi_offset 0, -32
# handlers.c:1050:     *skip_call=0;
	mov	rax, QWORD PTR 32[rsp]	# skip_call, skip_call
	mov	QWORD PTR [rax], 0	# *skip_call_3(D),
# handlers.c:1051:     *save_ufds=ufds;
	mov	rax, QWORD PTR 40[rsp]	# save_ufds, save_ufds
	mov	QWORD PTR [rax], rdi	# *save_ufds_5(D), ufds
# handlers.c:1053:     *save_nfds=timeout;
	mov	rax, QWORD PTR 48[rsp]	# save_nfds, save_nfds
	mov	DWORD PTR [rax], edx	# *save_nfds_8(D), timeout
# handlers.c:1054: }
	pop	rax	#
	.cfi_def_cfa_offset 24
	pop	rdx	#
	.cfi_def_cfa_offset 16
	pop	rdi	#
	.cfi_def_cfa_offset 8
	ret
	.cfi_endproc
.LFE66:
	.size	pre_sys_poll, .-pre_sys_poll
	.align 16
	.globl	sys_sigprocmask
	.type	sys_sigprocmask, @function
sys_sigprocmask:
.LFB67:
	.cfi_startproc
	push	r12	#
	.cfi_def_cfa_offset 16
	.cfi_offset 12, -16
	push	r11	#
	.cfi_def_cfa_offset 24
	.cfi_offset 11, -24
	push	r10	#
	.cfi_def_cfa_offset 32
	.cfi_offset 10, -32
	push	r9	#
	.cfi_def_cfa_offset 40
	.cfi_offset 9, -40
	push	r8	#
	.cfi_def_cfa_offset 48
	.cfi_offset 8, -48
	push	rdi	#
	.cfi_def_cfa_offset 56
	.cfi_offset 5, -56
	push	rax	#
	.cfi_def_cfa_offset 64
	.cfi_offset 0, -64
# handlers.c:1060:     long save_rax = __read_reg("rax");
#APP
# 1060 "handlers.c" 1
	mov r12, rax	# val
	
# 0 "" 2
# handlers.c:1062:     vmcall_5(det_sys_sigprocmask,current_task,save_how,save_set,save_oset,save_rax);
#NO_APP
	mov	r8d, DWORD PTR hypercall_info[rip+11232]	# hypercall_info.OsSpecificFields.CurrentTaskOffset, hypercall_info.OsSpecificFields.CurrentTaskOffset
#APP
# 1062 "handlers.c" 1
	mov r8, gs:[r8]	# ret, hypercall_info.OsSpecificFields.CurrentTaskOffset
# 0 "" 2
#NO_APP
	mov	r9, QWORD PTR 72[rsp]	# __p2, save_how
	mov	r10d, DWORD PTR 80[rsp]	# __p3, save_set
	movsx	r11, DWORD PTR 88[rsp]	# __p4, save_oset
	mov	edi, 47	#,
	call	vmcall	#
# handlers.c:1063: }
	pop	rax	#
	.cfi_def_cfa_offset 56
	pop	rdi	#
	.cfi_def_cfa_offset 48
	pop	r8	#
	.cfi_def_cfa_offset 40
	pop	r9	#
	.cfi_def_cfa_offset 32
	pop	r10	#
	.cfi_def_cfa_offset 24
	pop	r11	#
	.cfi_def_cfa_offset 16
	pop	r12	#
	.cfi_def_cfa_offset 8
	ret
	.cfi_endproc
.LFE67:
	.size	sys_sigprocmask, .-sys_sigprocmask
	.align 16
	.globl	pre_sys_sigprocmask
	.type	pre_sys_sigprocmask, @function
pre_sys_sigprocmask:
.LFB68:
	.cfi_startproc
	push	rdi	#
	.cfi_def_cfa_offset 16
	.cfi_offset 5, -16
# handlers.c:1070:     *save_how=how;
	movsx	rdi, edi	# how, how
# handlers.c:1068: {
	push	rsi	#
	.cfi_def_cfa_offset 24
	.cfi_offset 4, -24
	push	rdx	#
	.cfi_def_cfa_offset 32
	.cfi_offset 1, -32
	push	rax	#
	.cfi_def_cfa_offset 40
	.cfi_offset 0, -40
# handlers.c:1069:     *skip_call=0;
	mov	rax, QWORD PTR 40[rsp]	# skip_call, skip_call
	mov	QWORD PTR [rax], 0	# *skip_call_8(D),
# handlers.c:1070:     *save_how=how;
	mov	rax, QWORD PTR 48[rsp]	# save_how, save_how
	mov	QWORD PTR [rax], rdi	# *save_how_11(D), how
# handlers.c:1071:     *save_set=set;
	mov	rax, QWORD PTR 56[rsp]	# save_set, save_set
	mov	DWORD PTR [rax], esi	# *save_set_14(D), set
# handlers.c:1072:     *save_oset=oset;
	mov	rax, QWORD PTR 64[rsp]	# save_oset, save_oset
	mov	DWORD PTR [rax], edx	# *save_oset_17(D), oset
# handlers.c:1073: }
	pop	rax	#
	.cfi_def_cfa_offset 32
	pop	rdx	#
	.cfi_def_cfa_offset 24
	pop	rsi	#
	.cfi_def_cfa_offset 16
	pop	rdi	#
	.cfi_def_cfa_offset 8
	ret
	.cfi_endproc
.LFE68:
	.size	pre_sys_sigprocmask, .-pre_sys_sigprocmask
	.align 16
	.globl	sys_getrlimit
	.type	sys_getrlimit, @function
sys_getrlimit:
.LFB69:
	.cfi_startproc
	push	r11	#
	.cfi_def_cfa_offset 16
	.cfi_offset 11, -16
	push	r10	#
	.cfi_def_cfa_offset 24
	.cfi_offset 10, -24
	push	r9	#
	.cfi_def_cfa_offset 32
	.cfi_offset 9, -32
	push	r8	#
	.cfi_def_cfa_offset 40
	.cfi_offset 8, -40
	push	rdi	#
	.cfi_def_cfa_offset 48
	.cfi_offset 5, -48
	push	rax	#
	.cfi_def_cfa_offset 56
	.cfi_offset 0, -56
# handlers.c:1079:     long save_rax = __read_reg("rax");
#APP
# 1079 "handlers.c" 1
	mov r11, rax	# val
	
# 0 "" 2
# handlers.c:1081:     vmcall_4(det_sys_getrlimit,current_task,save_resource,save_rlim,save_rax);
#NO_APP
	mov	r8d, DWORD PTR hypercall_info[rip+11232]	# hypercall_info.OsSpecificFields.CurrentTaskOffset, hypercall_info.OsSpecificFields.CurrentTaskOffset
#APP
# 1081 "handlers.c" 1
	mov r8, gs:[r8]	# ret, hypercall_info.OsSpecificFields.CurrentTaskOffset
# 0 "" 2
#NO_APP
	mov	r9d, DWORD PTR 64[rsp]	# __p2, save_resource
	mov	r10, QWORD PTR 72[rsp]	# __p3, save_rlim
	mov	edi, 48	#,
	call	vmcall	#
# handlers.c:1082: }
	pop	rax	#
	.cfi_def_cfa_offset 48
	pop	rdi	#
	.cfi_def_cfa_offset 40
	pop	r8	#
	.cfi_def_cfa_offset 32
	pop	r9	#
	.cfi_def_cfa_offset 24
	pop	r10	#
	.cfi_def_cfa_offset 16
	pop	r11	#
	.cfi_def_cfa_offset 8
	ret
	.cfi_endproc
.LFE69:
	.size	sys_getrlimit, .-sys_getrlimit
	.align 16
	.globl	pre_sys_getrlimit
	.type	pre_sys_getrlimit, @function
pre_sys_getrlimit:
.LFB250:
	.cfi_startproc
	push	rdi	#
	.cfi_def_cfa_offset 16
	.cfi_offset 5, -16
	push	rsi	#
	.cfi_def_cfa_offset 24
	.cfi_offset 4, -24
	push	rax	#
	.cfi_def_cfa_offset 32
	.cfi_offset 0, -32
	mov	rax, QWORD PTR 32[rsp]	# skip_call, skip_call
	mov	QWORD PTR [rax], 0	# *skip_call_8(D),
	mov	rax, QWORD PTR 40[rsp]	# save_resource, save_resource
	mov	DWORD PTR [rax], edi	# *save_resource_9(D), resource
	mov	rax, QWORD PTR 48[rsp]	# save_rlim, save_rlim
	mov	QWORD PTR [rax], rsi	# *save_rlim_10(D), rlim
	pop	rax	#
	.cfi_def_cfa_offset 24
	pop	rsi	#
	.cfi_def_cfa_offset 16
	pop	rdi	#
	.cfi_def_cfa_offset 8
	ret
	.cfi_endproc
.LFE250:
	.size	pre_sys_getrlimit, .-pre_sys_getrlimit
	.align 16
	.globl	sys_umask
	.type	sys_umask, @function
sys_umask:
.LFB71:
	.cfi_startproc
# handlers.c:1096: {
	push	r10	#
	.cfi_def_cfa_offset 16
	.cfi_offset 10, -16
	push	r9	#
	.cfi_def_cfa_offset 24
	.cfi_offset 9, -24
	push	r8	#
	.cfi_def_cfa_offset 32
	.cfi_offset 8, -32
	push	rdi	#
	.cfi_def_cfa_offset 40
	.cfi_offset 5, -40
	push	rax	#
	.cfi_def_cfa_offset 48
	.cfi_offset 0, -48
# handlers.c:1097:     long save_rax = __read_reg("rax");
#APP
# 1097 "handlers.c" 1
	mov r10, rax	# val
	
# 0 "" 2
# handlers.c:1099:     vmcall_3(det_sys_getrlimit,current_task,save_mask,save_rax);
#NO_APP
	mov	r8d, DWORD PTR hypercall_info[rip+11232]	# hypercall_info.OsSpecificFields.CurrentTaskOffset, hypercall_info.OsSpecificFields.CurrentTaskOffset
#APP
# 1099 "handlers.c" 1
	mov r8, gs:[r8]	# ret, hypercall_info.OsSpecificFields.CurrentTaskOffset
# 0 "" 2
#NO_APP
	movsx	r9, DWORD PTR 56[rsp]	# __p2, save_mask
	mov	edi, 48	#,
	call	vmcall	#
# handlers.c:1100: }
	pop	rax	#
	.cfi_def_cfa_offset 40
	pop	rdi	#
	.cfi_def_cfa_offset 32
	pop	r8	#
	.cfi_def_cfa_offset 24
	pop	r9	#
	.cfi_def_cfa_offset 16
	pop	r10	#
	.cfi_def_cfa_offset 8
	ret
	.cfi_endproc
.LFE71:
	.size	sys_umask, .-sys_umask
	.align 16
	.globl	pre_sys_umask
	.type	pre_sys_umask, @function
pre_sys_umask:
.LFB228:
	.cfi_startproc
	push	rdi	#
	.cfi_def_cfa_offset 16
	.cfi_offset 5, -16
	push	rax	#
	.cfi_def_cfa_offset 24
	.cfi_offset 0, -24
	mov	rax, QWORD PTR 24[rsp]	# skip_call, skip_call
	mov	QWORD PTR [rax], 0	# *skip_call_8(D),
	mov	rax, QWORD PTR 32[rsp]	# save_mask, save_mask
	mov	DWORD PTR [rax], edi	# *save_mask_9(D), mask
	pop	rax	#
	.cfi_def_cfa_offset 16
	pop	rdi	#
	.cfi_def_cfa_offset 8
	ret
	.cfi_endproc
.LFE228:
	.size	pre_sys_umask, .-pre_sys_umask
	.align 16
	.globl	sys_ioctl
	.type	sys_ioctl, @function
sys_ioctl:
.LFB73:
	.cfi_startproc
# handlers.c:1114: {
	push	r12	#
	.cfi_def_cfa_offset 16
	.cfi_offset 12, -16
	push	r11	#
	.cfi_def_cfa_offset 24
	.cfi_offset 11, -24
	push	r10	#
	.cfi_def_cfa_offset 32
	.cfi_offset 10, -32
	push	r9	#
	.cfi_def_cfa_offset 40
	.cfi_offset 9, -40
	push	r8	#
	.cfi_def_cfa_offset 48
	.cfi_offset 8, -48
	push	rdi	#
	.cfi_def_cfa_offset 56
	.cfi_offset 5, -56
	push	rax	#
	.cfi_def_cfa_offset 64
	.cfi_offset 0, -64
# handlers.c:1115:     long save_rax = __read_reg("rax");
#APP
# 1115 "handlers.c" 1
	mov r12, rax	# val
	
# 0 "" 2
# handlers.c:1117:     vmcall_5(det_sys_ioctl,current_task,save_fd,save_cmd,save_arg,save_rax);
#NO_APP
	mov	r8d, DWORD PTR hypercall_info[rip+11232]	# hypercall_info.OsSpecificFields.CurrentTaskOffset, hypercall_info.OsSpecificFields.CurrentTaskOffset
#APP
# 1117 "handlers.c" 1
	mov r8, gs:[r8]	# ret, hypercall_info.OsSpecificFields.CurrentTaskOffset
# 0 "" 2
#NO_APP
	mov	r9d, DWORD PTR 72[rsp]	# __p2, save_fd
	mov	r10d, DWORD PTR 80[rsp]	# __p3, save_cmd
	mov	r11, QWORD PTR 88[rsp]	# __p4, save_arg
	mov	edi, 50	#,
	call	vmcall	#
# handlers.c:1118: }
	pop	rax	#
	.cfi_def_cfa_offset 56
	pop	rdi	#
	.cfi_def_cfa_offset 48
	pop	r8	#
	.cfi_def_cfa_offset 40
	pop	r9	#
	.cfi_def_cfa_offset 32
	pop	r10	#
	.cfi_def_cfa_offset 24
	pop	r11	#
	.cfi_def_cfa_offset 16
	pop	r12	#
	.cfi_def_cfa_offset 8
	ret
	.cfi_endproc
.LFE73:
	.size	sys_ioctl, .-sys_ioctl
	.align 16
	.globl	pre_sys_ioctl
	.type	pre_sys_ioctl, @function
pre_sys_ioctl:
.LFB74:
	.cfi_startproc
	push	rdi	#
	.cfi_def_cfa_offset 16
	.cfi_offset 5, -16
	push	rsi	#
	.cfi_def_cfa_offset 24
	.cfi_offset 4, -24
	push	rdx	#
	.cfi_def_cfa_offset 32
	.cfi_offset 1, -32
	push	rax	#
	.cfi_def_cfa_offset 40
	.cfi_offset 0, -40
# handlers.c:1124:     *skip_call=0;
	mov	rax, QWORD PTR 40[rsp]	# skip_call, skip_call
	mov	QWORD PTR [rax], 0	# *skip_call_2(D),
# handlers.c:1125:     *save_fd=fd;
	mov	rax, QWORD PTR 48[rsp]	# save_fd, save_fd
	mov	DWORD PTR [rax], edi	# *save_fd_4(D), fd
# handlers.c:1126:     *save_cmd=cmd;
	mov	rax, QWORD PTR 56[rsp]	# save_cmd, save_cmd
	mov	DWORD PTR [rax], esi	# *save_cmd_7(D), cmd
# handlers.c:1127:     *save_arg=arg;
	mov	rax, QWORD PTR 64[rsp]	# save_arg, save_arg
	mov	QWORD PTR [rax], rdx	# *save_arg_10(D), arg
# handlers.c:1128: }
	pop	rax	#
	.cfi_def_cfa_offset 32
	pop	rdx	#
	.cfi_def_cfa_offset 24
	pop	rsi	#
	.cfi_def_cfa_offset 16
	pop	rdi	#
	.cfi_def_cfa_offset 8
	ret
	.cfi_endproc
.LFE74:
	.size	pre_sys_ioctl, .-pre_sys_ioctl
	.align 16
	.globl	sys_brk
	.type	sys_brk, @function
sys_brk:
.LFB75:
	.cfi_startproc
	push	r10	#
	.cfi_def_cfa_offset 16
	.cfi_offset 10, -16
	push	r9	#
	.cfi_def_cfa_offset 24
	.cfi_offset 9, -24
	push	r8	#
	.cfi_def_cfa_offset 32
	.cfi_offset 8, -32
	push	rdi	#
	.cfi_def_cfa_offset 40
	.cfi_offset 5, -40
	push	rax	#
	.cfi_def_cfa_offset 48
	.cfi_offset 0, -48
# handlers.c:1134:     long save_rax = __read_reg("rax");
#APP
# 1134 "handlers.c" 1
	mov r10, rax	# val
	
# 0 "" 2
# handlers.c:1136:     vmcall_3(det_sys_brk,current_task,save_brk,save_rax);
#NO_APP
	mov	r8d, DWORD PTR hypercall_info[rip+11232]	# hypercall_info.OsSpecificFields.CurrentTaskOffset, hypercall_info.OsSpecificFields.CurrentTaskOffset
#APP
# 1136 "handlers.c" 1
	mov r8, gs:[r8]	# ret, hypercall_info.OsSpecificFields.CurrentTaskOffset
# 0 "" 2
#NO_APP
	mov	r9, QWORD PTR 56[rsp]	# __p2, save_brk
	mov	edi, 51	#,
	call	vmcall	#
# handlers.c:1137: }
	pop	rax	#
	.cfi_def_cfa_offset 40
	pop	rdi	#
	.cfi_def_cfa_offset 32
	pop	r8	#
	.cfi_def_cfa_offset 24
	pop	r9	#
	.cfi_def_cfa_offset 16
	pop	r10	#
	.cfi_def_cfa_offset 8
	ret
	.cfi_endproc
.LFE75:
	.size	sys_brk, .-sys_brk
	.align 16
	.globl	pre_sys_brk
	.type	pre_sys_brk, @function
pre_sys_brk:
.LFB76:
	.cfi_startproc
	push	rdi	#
	.cfi_def_cfa_offset 16
	.cfi_offset 5, -16
	push	rax	#
	.cfi_def_cfa_offset 24
	.cfi_offset 0, -24
# handlers.c:1143:     *skip_call=0;
	mov	rax, QWORD PTR 24[rsp]	# skip_call, skip_call
	mov	QWORD PTR [rax], 0	# *skip_call_2(D),
# handlers.c:1144:     *save_brk=brk;
	mov	rax, QWORD PTR 32[rsp]	# save_brk, save_brk
	mov	QWORD PTR [rax], rdi	# *save_brk_4(D), brk
# handlers.c:1145: }
	pop	rax	#
	.cfi_def_cfa_offset 16
	pop	rdi	#
	.cfi_def_cfa_offset 8
	ret
	.cfi_endproc
.LFE76:
	.size	pre_sys_brk, .-pre_sys_brk
	.align 16
	.globl	sys_gettimeofday
	.type	sys_gettimeofday, @function
sys_gettimeofday:
.LFB77:
	.cfi_startproc
	push	r11	#
	.cfi_def_cfa_offset 16
	.cfi_offset 11, -16
	push	r10	#
	.cfi_def_cfa_offset 24
	.cfi_offset 10, -24
	push	r9	#
	.cfi_def_cfa_offset 32
	.cfi_offset 9, -32
	push	r8	#
	.cfi_def_cfa_offset 40
	.cfi_offset 8, -40
	push	rdi	#
	.cfi_def_cfa_offset 48
	.cfi_offset 5, -48
	push	rax	#
	.cfi_def_cfa_offset 56
	.cfi_offset 0, -56
# handlers.c:1151:     long save_rax = __read_reg("rax");
#APP
# 1151 "handlers.c" 1
	mov r11, rax	# val
	
# 0 "" 2
# handlers.c:1153:     vmcall_4(det_sys_gettimeofday,current_task,save_tv,save_tz,save_rax);
#NO_APP
	mov	r8d, DWORD PTR hypercall_info[rip+11232]	# hypercall_info.OsSpecificFields.CurrentTaskOffset, hypercall_info.OsSpecificFields.CurrentTaskOffset
#APP
# 1153 "handlers.c" 1
	mov r8, gs:[r8]	# ret, hypercall_info.OsSpecificFields.CurrentTaskOffset
# 0 "" 2
#NO_APP
	mov	r9, QWORD PTR 64[rsp]	# __p2, save_tv
	mov	r10, QWORD PTR 72[rsp]	# __p3, save_tz
	mov	edi, 52	#,
	call	vmcall	#
# handlers.c:1154: }
	pop	rax	#
	.cfi_def_cfa_offset 48
	pop	rdi	#
	.cfi_def_cfa_offset 40
	pop	r8	#
	.cfi_def_cfa_offset 32
	pop	r9	#
	.cfi_def_cfa_offset 24
	pop	r10	#
	.cfi_def_cfa_offset 16
	pop	r11	#
	.cfi_def_cfa_offset 8
	ret
	.cfi_endproc
.LFE77:
	.size	sys_gettimeofday, .-sys_gettimeofday
	.align 16
	.globl	pre_sys_gettimeofday
	.type	pre_sys_gettimeofday, @function
pre_sys_gettimeofday:
.LFB240:
	.cfi_startproc
	push	rdi	#
	.cfi_def_cfa_offset 16
	.cfi_offset 5, -16
	push	rsi	#
	.cfi_def_cfa_offset 24
	.cfi_offset 4, -24
	push	rax	#
	.cfi_def_cfa_offset 32
	.cfi_offset 0, -32
	mov	rax, QWORD PTR 32[rsp]	# skip_call, skip_call
	mov	QWORD PTR [rax], 0	# *skip_call_8(D),
	mov	rax, QWORD PTR 40[rsp]	# save_tv, save_tv
	mov	QWORD PTR [rax], rdi	# *save_tv_9(D), tv
	mov	rax, QWORD PTR 48[rsp]	# save_tz, save_tz
	mov	QWORD PTR [rax], rsi	# *save_tz_10(D), tz
	pop	rax	#
	.cfi_def_cfa_offset 24
	pop	rsi	#
	.cfi_def_cfa_offset 16
	pop	rdi	#
	.cfi_def_cfa_offset 8
	ret
	.cfi_endproc
.LFE240:
	.size	pre_sys_gettimeofday, .-pre_sys_gettimeofday
	.align 16
	.globl	sys_setresuid
	.type	sys_setresuid, @function
sys_setresuid:
.LFB79:
	.cfi_startproc
# handlers.c:1168: {
	push	r12	#
	.cfi_def_cfa_offset 16
	.cfi_offset 12, -16
	push	r11	#
	.cfi_def_cfa_offset 24
	.cfi_offset 11, -24
	push	r10	#
	.cfi_def_cfa_offset 32
	.cfi_offset 10, -32
	push	r9	#
	.cfi_def_cfa_offset 40
	.cfi_offset 9, -40
	push	r8	#
	.cfi_def_cfa_offset 48
	.cfi_offset 8, -48
	push	rdi	#
	.cfi_def_cfa_offset 56
	.cfi_offset 5, -56
	push	rax	#
	.cfi_def_cfa_offset 64
	.cfi_offset 0, -64
# handlers.c:1169:     long save_rax = __read_reg("rax");
#APP
# 1169 "handlers.c" 1
	mov r12, rax	# val
	
# 0 "" 2
# handlers.c:1171:     vmcall_5(det_sys_setresuid,current_task,save_ruid,save_euid,save_suid,save_rax);
#NO_APP
	mov	r8d, DWORD PTR hypercall_info[rip+11232]	# hypercall_info.OsSpecificFields.CurrentTaskOffset, hypercall_info.OsSpecificFields.CurrentTaskOffset
#APP
# 1171 "handlers.c" 1
	mov r8, gs:[r8]	# ret, hypercall_info.OsSpecificFields.CurrentTaskOffset
# 0 "" 2
#NO_APP
	mov	r9d, DWORD PTR 72[rsp]	# __p2, save_ruid
	mov	r10d, DWORD PTR 80[rsp]	# __p3, save_euid
	mov	r11d, DWORD PTR 88[rsp]	# __p4, save_suid
	mov	edi, 53	#,
	call	vmcall	#
# handlers.c:1172: }
	pop	rax	#
	.cfi_def_cfa_offset 56
	pop	rdi	#
	.cfi_def_cfa_offset 48
	pop	r8	#
	.cfi_def_cfa_offset 40
	pop	r9	#
	.cfi_def_cfa_offset 32
	pop	r10	#
	.cfi_def_cfa_offset 24
	pop	r11	#
	.cfi_def_cfa_offset 16
	pop	r12	#
	.cfi_def_cfa_offset 8
	ret
	.cfi_endproc
.LFE79:
	.size	sys_setresuid, .-sys_setresuid
	.align 16
	.globl	pre_sys_setresuid
	.type	pre_sys_setresuid, @function
pre_sys_setresuid:
.LFB80:
	.cfi_startproc
	push	rdi	#
	.cfi_def_cfa_offset 16
	.cfi_offset 5, -16
	push	rsi	#
	.cfi_def_cfa_offset 24
	.cfi_offset 4, -24
	push	rdx	#
	.cfi_def_cfa_offset 32
	.cfi_offset 1, -32
	push	rax	#
	.cfi_def_cfa_offset 40
	.cfi_offset 0, -40
# handlers.c:1178:     *skip_call=0;
	mov	rax, QWORD PTR 40[rsp]	# skip_call, skip_call
	mov	QWORD PTR [rax], 0	# *skip_call_2(D),
# handlers.c:1179:     *save_ruid=ruid;
	mov	rax, QWORD PTR 48[rsp]	# save_ruid, save_ruid
	mov	DWORD PTR [rax], edi	# *save_ruid_4(D), ruid
# handlers.c:1180:     *save_euid=euid;
	mov	rax, QWORD PTR 56[rsp]	# save_euid, save_euid
	mov	DWORD PTR [rax], esi	# *save_euid_7(D), euid
# handlers.c:1181:     *save_suid=suid;
	mov	rax, QWORD PTR 64[rsp]	# save_suid, save_suid
	mov	DWORD PTR [rax], edx	# *save_suid_10(D), suid
# handlers.c:1182: }
	pop	rax	#
	.cfi_def_cfa_offset 32
	pop	rdx	#
	.cfi_def_cfa_offset 24
	pop	rsi	#
	.cfi_def_cfa_offset 16
	pop	rdi	#
	.cfi_def_cfa_offset 8
	ret
	.cfi_endproc
.LFE80:
	.size	pre_sys_setresuid, .-pre_sys_setresuid
	.align 16
	.globl	sys_chdir
	.type	sys_chdir, @function
sys_chdir:
.LFB81:
	.cfi_startproc
	push	r10	#
	.cfi_def_cfa_offset 16
	.cfi_offset 10, -16
	push	r9	#
	.cfi_def_cfa_offset 24
	.cfi_offset 9, -24
	push	r8	#
	.cfi_def_cfa_offset 32
	.cfi_offset 8, -32
	push	rdi	#
	.cfi_def_cfa_offset 40
	.cfi_offset 5, -40
	push	rax	#
	.cfi_def_cfa_offset 48
	.cfi_offset 0, -48
# handlers.c:1187:     long save_rax = __read_reg("rax");
#APP
# 1187 "handlers.c" 1
	mov r10, rax	# val
	
# 0 "" 2
# handlers.c:1189:     vmcall_3(det_sys_chdir,current_task,save_filename,save_rax);
#NO_APP
	mov	r8d, DWORD PTR hypercall_info[rip+11232]	# hypercall_info.OsSpecificFields.CurrentTaskOffset, hypercall_info.OsSpecificFields.CurrentTaskOffset
#APP
# 1189 "handlers.c" 1
	mov r8, gs:[r8]	# ret, hypercall_info.OsSpecificFields.CurrentTaskOffset
# 0 "" 2
#NO_APP
	mov	r9, QWORD PTR 56[rsp]	# __p2, save_filename
	mov	edi, 54	#,
	call	vmcall	#
# handlers.c:1190: }
	pop	rax	#
	.cfi_def_cfa_offset 40
	pop	rdi	#
	.cfi_def_cfa_offset 32
	pop	r8	#
	.cfi_def_cfa_offset 24
	pop	r9	#
	.cfi_def_cfa_offset 16
	pop	r10	#
	.cfi_def_cfa_offset 8
	ret
	.cfi_endproc
.LFE81:
	.size	sys_chdir, .-sys_chdir
	.align 16
	.globl	pre_sys_chdir
	.type	pre_sys_chdir, @function
pre_sys_chdir:
.LFB82:
	.cfi_startproc
	push	rdi	#
	.cfi_def_cfa_offset 16
	.cfi_offset 5, -16
	push	rax	#
	.cfi_def_cfa_offset 24
	.cfi_offset 0, -24
# handlers.c:1196:     *skip_call=0;
	mov	rax, QWORD PTR 24[rsp]	# skip_call, skip_call
	mov	QWORD PTR [rax], 0	# *skip_call_2(D),
# handlers.c:1197:     *save_filename=filename;
	mov	rax, QWORD PTR 32[rsp]	# save_filename, save_filename
	mov	QWORD PTR [rax], rdi	# *save_filename_4(D), filename
# handlers.c:1198: }
	pop	rax	#
	.cfi_def_cfa_offset 16
	pop	rdi	#
	.cfi_def_cfa_offset 8
	ret
	.cfi_endproc
.LFE82:
	.size	pre_sys_chdir, .-pre_sys_chdir
	.align 16
	.globl	sys_alarm
	.type	sys_alarm, @function
sys_alarm:
.LFB83:
	.cfi_startproc
	push	r10	#
	.cfi_def_cfa_offset 16
	.cfi_offset 10, -16
	push	r9	#
	.cfi_def_cfa_offset 24
	.cfi_offset 9, -24
	push	r8	#
	.cfi_def_cfa_offset 32
	.cfi_offset 8, -32
	push	rdi	#
	.cfi_def_cfa_offset 40
	.cfi_offset 5, -40
	push	rax	#
	.cfi_def_cfa_offset 48
	.cfi_offset 0, -48
# handlers.c:1204:     long save_rax = __read_reg("rax");
#APP
# 1204 "handlers.c" 1
	mov r10, rax	# val
	
# 0 "" 2
# handlers.c:1206:     vmcall_3(det_sys_alarm,current_task,save_seconds,save_rax);
#NO_APP
	mov	r8d, DWORD PTR hypercall_info[rip+11232]	# hypercall_info.OsSpecificFields.CurrentTaskOffset, hypercall_info.OsSpecificFields.CurrentTaskOffset
#APP
# 1206 "handlers.c" 1
	mov r8, gs:[r8]	# ret, hypercall_info.OsSpecificFields.CurrentTaskOffset
# 0 "" 2
#NO_APP
	mov	r9d, DWORD PTR 56[rsp]	# __p2, save_seconds
	mov	edi, 55	#,
	call	vmcall	#
# handlers.c:1207: }
	pop	rax	#
	.cfi_def_cfa_offset 40
	pop	rdi	#
	.cfi_def_cfa_offset 32
	pop	r8	#
	.cfi_def_cfa_offset 24
	pop	r9	#
	.cfi_def_cfa_offset 16
	pop	r10	#
	.cfi_def_cfa_offset 8
	ret
	.cfi_endproc
.LFE83:
	.size	sys_alarm, .-sys_alarm
	.align 16
	.globl	pre_sys_alarm
	.type	pre_sys_alarm, @function
pre_sys_alarm:
.LFB84:
	.cfi_startproc
	push	rdi	#
	.cfi_def_cfa_offset 16
	.cfi_offset 5, -16
	push	rax	#
	.cfi_def_cfa_offset 24
	.cfi_offset 0, -24
# handlers.c:1213:     *skip_call=0;
	mov	rax, QWORD PTR 24[rsp]	# skip_call, skip_call
	mov	QWORD PTR [rax], 0	# *skip_call_2(D),
# handlers.c:1214:     *save_seconds=seconds;
	mov	rax, QWORD PTR 32[rsp]	# save_seconds, save_seconds
	mov	DWORD PTR [rax], edi	# *save_seconds_4(D), seconds
# handlers.c:1215: }
	pop	rax	#
	.cfi_def_cfa_offset 16
	pop	rdi	#
	.cfi_def_cfa_offset 8
	ret
	.cfi_endproc
.LFE84:
	.size	pre_sys_alarm, .-pre_sys_alarm
	.align 16
	.globl	sys_ptrace
	.type	sys_ptrace, @function
sys_ptrace:
.LFB85:
	.cfi_startproc
	push	r13	#
	.cfi_def_cfa_offset 16
	.cfi_offset 13, -16
	push	r12	#
	.cfi_def_cfa_offset 24
	.cfi_offset 12, -24
	push	r11	#
	.cfi_def_cfa_offset 32
	.cfi_offset 11, -32
	push	r10	#
	.cfi_def_cfa_offset 40
	.cfi_offset 10, -40
	push	r9	#
	.cfi_def_cfa_offset 48
	.cfi_offset 9, -48
	push	r8	#
	.cfi_def_cfa_offset 56
	.cfi_offset 8, -56
	push	rdi	#
	.cfi_def_cfa_offset 64
	.cfi_offset 5, -64
	push	rax	#
	.cfi_def_cfa_offset 72
	.cfi_offset 0, -72
# handlers.c:1221:     long save_rax = __read_reg("rax");
#APP
# 1221 "handlers.c" 1
	mov r13, rax	# val
	
# 0 "" 2
# handlers.c:1223:     vmcall_6(det_sys_ptrace,current_task,save_request,save_pid,save_addr,save_data,save_rax);
#NO_APP
	mov	r8d, DWORD PTR hypercall_info[rip+11232]	# hypercall_info.OsSpecificFields.CurrentTaskOffset, hypercall_info.OsSpecificFields.CurrentTaskOffset
#APP
# 1223 "handlers.c" 1
	mov r8, gs:[r8]	# ret, hypercall_info.OsSpecificFields.CurrentTaskOffset
# 0 "" 2
#NO_APP
	mov	r9, QWORD PTR 80[rsp]	# __p2, save_request
	mov	r10, QWORD PTR 88[rsp]	# __p3, save_pid
	mov	r11, QWORD PTR 96[rsp]	# __p4, save_addr
	mov	r12, QWORD PTR 104[rsp]	# __p5, save_data
	mov	edi, 56	#,
	call	vmcall	#
# handlers.c:1224: }
	pop	rax	#
	.cfi_def_cfa_offset 64
	pop	rdi	#
	.cfi_def_cfa_offset 56
	pop	r8	#
	.cfi_def_cfa_offset 48
	pop	r9	#
	.cfi_def_cfa_offset 40
	pop	r10	#
	.cfi_def_cfa_offset 32
	pop	r11	#
	.cfi_def_cfa_offset 24
	pop	r12	#
	.cfi_def_cfa_offset 16
	pop	r13	#
	.cfi_def_cfa_offset 8
	ret
	.cfi_endproc
.LFE85:
	.size	sys_ptrace, .-sys_ptrace
	.align 16
	.globl	pre_sys_ptrace
	.type	pre_sys_ptrace, @function
pre_sys_ptrace:
.LFB86:
	.cfi_startproc
	push	rdi	#
	.cfi_def_cfa_offset 16
	.cfi_offset 5, -16
	push	rsi	#
	.cfi_def_cfa_offset 24
	.cfi_offset 4, -24
	push	rcx	#
	.cfi_def_cfa_offset 32
	.cfi_offset 2, -32
	push	rdx	#
	.cfi_def_cfa_offset 40
	.cfi_offset 1, -40
	push	rax	#
	.cfi_def_cfa_offset 48
	.cfi_offset 0, -48
# handlers.c:1230:     *skip_call=0;
	mov	rax, QWORD PTR 48[rsp]	# skip_call, skip_call
	mov	QWORD PTR [rax], 0	# *skip_call_2(D),
# handlers.c:1231:     *save_request=request;
	mov	rax, QWORD PTR 56[rsp]	# save_request, save_request
	mov	QWORD PTR [rax], rdi	# *save_request_4(D), request
# handlers.c:1232:     *save_pid=pid;
	mov	rax, QWORD PTR 64[rsp]	# save_pid, save_pid
	mov	QWORD PTR [rax], rsi	# *save_pid_7(D), pid
# handlers.c:1233:     *save_addr=addr;
	mov	rax, QWORD PTR 72[rsp]	# save_addr, save_addr
	mov	QWORD PTR [rax], rdx	# *save_addr_10(D), addr
# handlers.c:1234:     *save_data=data;
	mov	rax, QWORD PTR 80[rsp]	# save_data, save_data
	mov	QWORD PTR [rax], rcx	# *save_data_13(D), data
# handlers.c:1235: }
	pop	rax	#
	.cfi_def_cfa_offset 40
	pop	rdx	#
	.cfi_def_cfa_offset 32
	pop	rcx	#
	.cfi_def_cfa_offset 24
	pop	rsi	#
	.cfi_def_cfa_offset 16
	pop	rdi	#
	.cfi_def_cfa_offset 8
	ret
	.cfi_endproc
.LFE86:
	.size	pre_sys_ptrace, .-pre_sys_ptrace
	.align 16
	.globl	sys_time
	.type	sys_time, @function
sys_time:
.LFB87:
	.cfi_startproc
	push	r10	#
	.cfi_def_cfa_offset 16
	.cfi_offset 10, -16
	push	r9	#
	.cfi_def_cfa_offset 24
	.cfi_offset 9, -24
	push	r8	#
	.cfi_def_cfa_offset 32
	.cfi_offset 8, -32
	push	rdi	#
	.cfi_def_cfa_offset 40
	.cfi_offset 5, -40
	push	rax	#
	.cfi_def_cfa_offset 48
	.cfi_offset 0, -48
# handlers.c:1241:     long save_rax = __read_reg("rax");
#APP
# 1241 "handlers.c" 1
	mov r10, rax	# val
	
# 0 "" 2
# handlers.c:1243:     vmcall_3(det_sys_time,current_task,save_tloc,save_rax);
#NO_APP
	mov	r8d, DWORD PTR hypercall_info[rip+11232]	# hypercall_info.OsSpecificFields.CurrentTaskOffset, hypercall_info.OsSpecificFields.CurrentTaskOffset
#APP
# 1243 "handlers.c" 1
	mov r8, gs:[r8]	# ret, hypercall_info.OsSpecificFields.CurrentTaskOffset
# 0 "" 2
#NO_APP
	mov	r9, QWORD PTR 56[rsp]	# __p2, save_tloc
	mov	edi, 57	#,
	call	vmcall	#
# handlers.c:1244: }
	pop	rax	#
	.cfi_def_cfa_offset 40
	pop	rdi	#
	.cfi_def_cfa_offset 32
	pop	r8	#
	.cfi_def_cfa_offset 24
	pop	r9	#
	.cfi_def_cfa_offset 16
	pop	r10	#
	.cfi_def_cfa_offset 8
	ret
	.cfi_endproc
.LFE87:
	.size	sys_time, .-sys_time
	.align 16
	.globl	pre_sys_time
	.type	pre_sys_time, @function
pre_sys_time:
.LFB88:
	.cfi_startproc
	push	rdi	#
	.cfi_def_cfa_offset 16
	.cfi_offset 5, -16
	push	rax	#
	.cfi_def_cfa_offset 24
	.cfi_offset 0, -24
# handlers.c:1250:     *skip_call=0;
	mov	rax, QWORD PTR 24[rsp]	# skip_call, skip_call
	mov	QWORD PTR [rax], 0	# *skip_call_2(D),
# handlers.c:1251:     *save_tloc=tloc;
	mov	rax, QWORD PTR 32[rsp]	# save_tloc, save_tloc
	mov	QWORD PTR [rax], rdi	# *save_tloc_4(D), tloc
# handlers.c:1252: }
	pop	rax	#
	.cfi_def_cfa_offset 16
	pop	rdi	#
	.cfi_def_cfa_offset 8
	ret
	.cfi_endproc
.LFE88:
	.size	pre_sys_time, .-pre_sys_time
	.align 16
	.globl	sys_chroot
	.type	sys_chroot, @function
sys_chroot:
.LFB89:
	.cfi_startproc
	push	r10	#
	.cfi_def_cfa_offset 16
	.cfi_offset 10, -16
	push	r9	#
	.cfi_def_cfa_offset 24
	.cfi_offset 9, -24
	push	r8	#
	.cfi_def_cfa_offset 32
	.cfi_offset 8, -32
	push	rdi	#
	.cfi_def_cfa_offset 40
	.cfi_offset 5, -40
	push	rax	#
	.cfi_def_cfa_offset 48
	.cfi_offset 0, -48
# handlers.c:1258:     long save_rax = __read_reg("rax");
#APP
# 1258 "handlers.c" 1
	mov r10, rax	# val
	
# 0 "" 2
# handlers.c:1260:     vmcall_3(det_sys_chroot,current_task,save_filename,save_rax);
#NO_APP
	mov	r8d, DWORD PTR hypercall_info[rip+11232]	# hypercall_info.OsSpecificFields.CurrentTaskOffset, hypercall_info.OsSpecificFields.CurrentTaskOffset
#APP
# 1260 "handlers.c" 1
	mov r8, gs:[r8]	# ret, hypercall_info.OsSpecificFields.CurrentTaskOffset
# 0 "" 2
#NO_APP
	mov	r9, QWORD PTR 56[rsp]	# __p2, save_filename
	mov	edi, 58	#,
	call	vmcall	#
# handlers.c:1261: }
	pop	rax	#
	.cfi_def_cfa_offset 40
	pop	rdi	#
	.cfi_def_cfa_offset 32
	pop	r8	#
	.cfi_def_cfa_offset 24
	pop	r9	#
	.cfi_def_cfa_offset 16
	pop	r10	#
	.cfi_def_cfa_offset 8
	ret
	.cfi_endproc
.LFE89:
	.size	sys_chroot, .-sys_chroot
	.align 16
	.globl	pre_sys_chroot
	.type	pre_sys_chroot, @function
pre_sys_chroot:
.LFB208:
	.cfi_startproc
	push	rdi	#
	.cfi_def_cfa_offset 16
	.cfi_offset 5, -16
	push	rax	#
	.cfi_def_cfa_offset 24
	.cfi_offset 0, -24
	mov	rax, QWORD PTR 24[rsp]	# skip_call, skip_call
	mov	QWORD PTR [rax], 0	# *skip_call_8(D),
	mov	rax, QWORD PTR 32[rsp]	# save_filename, save_filename
	mov	QWORD PTR [rax], rdi	# *save_filename_9(D), filename
	pop	rax	#
	.cfi_def_cfa_offset 16
	pop	rdi	#
	.cfi_def_cfa_offset 8
	ret
	.cfi_endproc
.LFE208:
	.size	pre_sys_chroot, .-pre_sys_chroot
	.align 16
	.globl	sys_kill
	.type	sys_kill, @function
sys_kill:
.LFB91:
	.cfi_startproc
# handlers.c:1274: {
	push	r11	#
	.cfi_def_cfa_offset 16
	.cfi_offset 11, -16
	push	r10	#
	.cfi_def_cfa_offset 24
	.cfi_offset 10, -24
	push	r9	#
	.cfi_def_cfa_offset 32
	.cfi_offset 9, -32
	push	r8	#
	.cfi_def_cfa_offset 40
	.cfi_offset 8, -40
	push	rdi	#
	.cfi_def_cfa_offset 48
	.cfi_offset 5, -48
	push	rax	#
	.cfi_def_cfa_offset 56
	.cfi_offset 0, -56
# handlers.c:1275:     long save_rax = __read_reg("rax");
#APP
# 1275 "handlers.c" 1
	mov r11, rax	# val
	
# 0 "" 2
# handlers.c:1277:     vmcall_4(det_sys_kill,current_task,save_pid,save_sig,save_rax);
#NO_APP
	mov	r8d, DWORD PTR hypercall_info[rip+11232]	# hypercall_info.OsSpecificFields.CurrentTaskOffset, hypercall_info.OsSpecificFields.CurrentTaskOffset
#APP
# 1277 "handlers.c" 1
	mov r8, gs:[r8]	# ret, hypercall_info.OsSpecificFields.CurrentTaskOffset
# 0 "" 2
#NO_APP
	mov	r9, QWORD PTR 64[rsp]	# __p2, save_pid
	movsx	r10, DWORD PTR 72[rsp]	# __p3, save_sig
	mov	edi, 59	#,
	call	vmcall	#
# handlers.c:1278: }
	pop	rax	#
	.cfi_def_cfa_offset 48
	pop	rdi	#
	.cfi_def_cfa_offset 40
	pop	r8	#
	.cfi_def_cfa_offset 32
	pop	r9	#
	.cfi_def_cfa_offset 24
	pop	r10	#
	.cfi_def_cfa_offset 16
	pop	r11	#
	.cfi_def_cfa_offset 8
	ret
	.cfi_endproc
.LFE91:
	.size	sys_kill, .-sys_kill
	.align 16
	.globl	pre_sys_kill
	.type	pre_sys_kill, @function
pre_sys_kill:
.LFB92:
	.cfi_startproc
	push	rdi	#
	.cfi_def_cfa_offset 16
	.cfi_offset 5, -16
	push	rsi	#
	.cfi_def_cfa_offset 24
	.cfi_offset 4, -24
	push	rax	#
	.cfi_def_cfa_offset 32
	.cfi_offset 0, -32
# handlers.c:1284:     *skip_call=0;
	mov	rax, QWORD PTR 32[rsp]	# skip_call, skip_call
	mov	QWORD PTR [rax], 0	# *skip_call_2(D),
# handlers.c:1285:     *save_pid=pid;
	mov	rax, QWORD PTR 40[rsp]	# save_pid, save_pid
	mov	QWORD PTR [rax], rdi	# *save_pid_4(D), pid
# handlers.c:1286:     *save_sig=sig;
	mov	rax, QWORD PTR 48[rsp]	# save_sig, save_sig
	mov	DWORD PTR [rax], esi	# *save_sig_7(D), sig
# handlers.c:1287: }
	pop	rax	#
	.cfi_def_cfa_offset 24
	pop	rsi	#
	.cfi_def_cfa_offset 16
	pop	rdi	#
	.cfi_def_cfa_offset 8
	ret
	.cfi_endproc
.LFE92:
	.size	pre_sys_kill, .-pre_sys_kill
	.align 16
	.globl	sys_fchdir
	.type	sys_fchdir, @function
sys_fchdir:
.LFB93:
	.cfi_startproc
	push	r10	#
	.cfi_def_cfa_offset 16
	.cfi_offset 10, -16
	push	r9	#
	.cfi_def_cfa_offset 24
	.cfi_offset 9, -24
	push	r8	#
	.cfi_def_cfa_offset 32
	.cfi_offset 8, -32
	push	rdi	#
	.cfi_def_cfa_offset 40
	.cfi_offset 5, -40
	push	rax	#
	.cfi_def_cfa_offset 48
	.cfi_offset 0, -48
# handlers.c:1293:     long save_rax = __read_reg("rax");
#APP
# 1293 "handlers.c" 1
	mov r10, rax	# val
	
# 0 "" 2
# handlers.c:1295:     vmcall_3(det_sys_fchdir,current_task,save_fd,save_rax);
#NO_APP
	mov	r8d, DWORD PTR hypercall_info[rip+11232]	# hypercall_info.OsSpecificFields.CurrentTaskOffset, hypercall_info.OsSpecificFields.CurrentTaskOffset
#APP
# 1295 "handlers.c" 1
	mov r8, gs:[r8]	# ret, hypercall_info.OsSpecificFields.CurrentTaskOffset
# 0 "" 2
#NO_APP
	mov	r9d, DWORD PTR 56[rsp]	# __p2, save_fd
	mov	edi, 60	#,
	call	vmcall	#
# handlers.c:1296: }
	pop	rax	#
	.cfi_def_cfa_offset 40
	pop	rdi	#
	.cfi_def_cfa_offset 32
	pop	r8	#
	.cfi_def_cfa_offset 24
	pop	r9	#
	.cfi_def_cfa_offset 16
	pop	r10	#
	.cfi_def_cfa_offset 8
	ret
	.cfi_endproc
.LFE93:
	.size	sys_fchdir, .-sys_fchdir
	.align 16
	.globl	pre_sys_fchdir
	.type	pre_sys_fchdir, @function
pre_sys_fchdir:
.LFB230:
	.cfi_startproc
	push	rdi	#
	.cfi_def_cfa_offset 16
	.cfi_offset 5, -16
	push	rax	#
	.cfi_def_cfa_offset 24
	.cfi_offset 0, -24
	mov	rax, QWORD PTR 24[rsp]	# skip_call, skip_call
	mov	QWORD PTR [rax], 0	# *skip_call_8(D),
	mov	rax, QWORD PTR 32[rsp]	# save_fd, save_fd
	mov	DWORD PTR [rax], edi	# *save_fd_9(D), fd
	pop	rax	#
	.cfi_def_cfa_offset 16
	pop	rdi	#
	.cfi_def_cfa_offset 8
	ret
	.cfi_endproc
.LFE230:
	.size	pre_sys_fchdir, .-pre_sys_fchdir
	.align 16
	.globl	sys_chmod
	.type	sys_chmod, @function
sys_chmod:
.LFB95:
	.cfi_startproc
# handlers.c:1309: {
	push	r11	#
	.cfi_def_cfa_offset 16
	.cfi_offset 11, -16
	push	r10	#
	.cfi_def_cfa_offset 24
	.cfi_offset 10, -24
	push	r9	#
	.cfi_def_cfa_offset 32
	.cfi_offset 9, -32
	push	r8	#
	.cfi_def_cfa_offset 40
	.cfi_offset 8, -40
	push	rdi	#
	.cfi_def_cfa_offset 48
	.cfi_offset 5, -48
	push	rax	#
	.cfi_def_cfa_offset 56
	.cfi_offset 0, -56
# handlers.c:1310:     long save_rax = __read_reg("rax");
#APP
# 1310 "handlers.c" 1
	mov r11, rax	# val
	
# 0 "" 2
# handlers.c:1312:     vmcall_4(det_sys_chmod,current_task,save_filename,save_mode,save_rax);
#NO_APP
	mov	r8d, DWORD PTR hypercall_info[rip+11232]	# hypercall_info.OsSpecificFields.CurrentTaskOffset, hypercall_info.OsSpecificFields.CurrentTaskOffset
#APP
# 1312 "handlers.c" 1
	mov r8, gs:[r8]	# ret, hypercall_info.OsSpecificFields.CurrentTaskOffset
# 0 "" 2
#NO_APP
	mov	r9, QWORD PTR 64[rsp]	# __p2, save_filename
	mov	r10, QWORD PTR 72[rsp]	# __p3, save_mode
	mov	edi, 61	#,
	call	vmcall	#
# handlers.c:1313: }
	pop	rax	#
	.cfi_def_cfa_offset 48
	pop	rdi	#
	.cfi_def_cfa_offset 40
	pop	r8	#
	.cfi_def_cfa_offset 32
	pop	r9	#
	.cfi_def_cfa_offset 24
	pop	r10	#
	.cfi_def_cfa_offset 16
	pop	r11	#
	.cfi_def_cfa_offset 8
	ret
	.cfi_endproc
.LFE95:
	.size	sys_chmod, .-sys_chmod
	.align 16
	.globl	pre_sys_chmod
	.type	pre_sys_chmod, @function
pre_sys_chmod:
.LFB96:
	.cfi_startproc
	push	rdi	#
	.cfi_def_cfa_offset 16
	.cfi_offset 5, -16
	push	rsi	#
	.cfi_def_cfa_offset 24
	.cfi_offset 4, -24
	push	rax	#
	.cfi_def_cfa_offset 32
	.cfi_offset 0, -32
# handlers.c:1319:     *skip_call=0;
	mov	rax, QWORD PTR 32[rsp]	# skip_call, skip_call
	mov	QWORD PTR [rax], 0	# *skip_call_2(D),
# handlers.c:1320:     *save_filename=filename;
	mov	rax, QWORD PTR 40[rsp]	# save_filename, save_filename
	mov	QWORD PTR [rax], rdi	# *save_filename_4(D), filename
# handlers.c:1321:     *save_mode=mode;
	mov	rax, QWORD PTR 48[rsp]	# save_mode, save_mode
	mov	QWORD PTR [rax], rsi	# *save_mode_7(D), mode
# handlers.c:1322: }
	pop	rax	#
	.cfi_def_cfa_offset 24
	pop	rsi	#
	.cfi_def_cfa_offset 16
	pop	rdi	#
	.cfi_def_cfa_offset 8
	ret
	.cfi_endproc
.LFE96:
	.size	pre_sys_chmod, .-pre_sys_chmod
	.align 16
	.globl	sys_chown
	.type	sys_chown, @function
sys_chown:
.LFB97:
	.cfi_startproc
	push	r12	#
	.cfi_def_cfa_offset 16
	.cfi_offset 12, -16
	push	r11	#
	.cfi_def_cfa_offset 24
	.cfi_offset 11, -24
	push	r10	#
	.cfi_def_cfa_offset 32
	.cfi_offset 10, -32
	push	r9	#
	.cfi_def_cfa_offset 40
	.cfi_offset 9, -40
	push	r8	#
	.cfi_def_cfa_offset 48
	.cfi_offset 8, -48
	push	rdi	#
	.cfi_def_cfa_offset 56
	.cfi_offset 5, -56
	push	rax	#
	.cfi_def_cfa_offset 64
	.cfi_offset 0, -64
# handlers.c:1328:     long save_rax = __read_reg("rax");
#APP
# 1328 "handlers.c" 1
	mov r12, rax	# val
	
# 0 "" 2
# handlers.c:1330:     vmcall_5(det_sys_chown,current_task,save_filename,save_user,save_group,save_rax);
#NO_APP
	mov	r8d, DWORD PTR hypercall_info[rip+11232]	# hypercall_info.OsSpecificFields.CurrentTaskOffset, hypercall_info.OsSpecificFields.CurrentTaskOffset
#APP
# 1330 "handlers.c" 1
	mov r8, gs:[r8]	# ret, hypercall_info.OsSpecificFields.CurrentTaskOffset
# 0 "" 2
#NO_APP
	mov	r9, QWORD PTR 72[rsp]	# __p2, save_filename
	mov	r10d, DWORD PTR 80[rsp]	# __p3, save_user
	mov	r11d, DWORD PTR 88[rsp]	# __p4, save_group
	mov	edi, 62	#,
	call	vmcall	#
# handlers.c:1331: }
	pop	rax	#
	.cfi_def_cfa_offset 56
	pop	rdi	#
	.cfi_def_cfa_offset 48
	pop	r8	#
	.cfi_def_cfa_offset 40
	pop	r9	#
	.cfi_def_cfa_offset 32
	pop	r10	#
	.cfi_def_cfa_offset 24
	pop	r11	#
	.cfi_def_cfa_offset 16
	pop	r12	#
	.cfi_def_cfa_offset 8
	ret
	.cfi_endproc
.LFE97:
	.size	sys_chown, .-sys_chown
	.align 16
	.globl	pre_sys_chown
	.type	pre_sys_chown, @function
pre_sys_chown:
.LFB98:
	.cfi_startproc
	push	rdi	#
	.cfi_def_cfa_offset 16
	.cfi_offset 5, -16
	push	rsi	#
	.cfi_def_cfa_offset 24
	.cfi_offset 4, -24
	push	rdx	#
	.cfi_def_cfa_offset 32
	.cfi_offset 1, -32
	push	rax	#
	.cfi_def_cfa_offset 40
	.cfi_offset 0, -40
# handlers.c:1337:     *skip_call=0;
	mov	rax, QWORD PTR 40[rsp]	# skip_call, skip_call
	mov	QWORD PTR [rax], 0	# *skip_call_2(D),
# handlers.c:1338:     *save_filename=filename;
	mov	rax, QWORD PTR 48[rsp]	# save_filename, save_filename
	mov	QWORD PTR [rax], rdi	# *save_filename_4(D), filename
# handlers.c:1339:     *save_user=user;
	mov	rax, QWORD PTR 56[rsp]	# save_user, save_user
	mov	DWORD PTR [rax], esi	# *save_user_7(D), user
# handlers.c:1340:     *save_group=group;
	mov	rax, QWORD PTR 64[rsp]	# save_group, save_group
	mov	DWORD PTR [rax], edx	# *save_group_10(D), group
# handlers.c:1341: }
	pop	rax	#
	.cfi_def_cfa_offset 32
	pop	rdx	#
	.cfi_def_cfa_offset 24
	pop	rsi	#
	.cfi_def_cfa_offset 16
	pop	rdi	#
	.cfi_def_cfa_offset 8
	ret
	.cfi_endproc
.LFE98:
	.size	pre_sys_chown, .-pre_sys_chown
	.align 16
	.globl	sys_fchmodat
	.type	sys_fchmodat, @function
sys_fchmodat:
.LFB99:
	.cfi_startproc
	push	r12	#
	.cfi_def_cfa_offset 16
	.cfi_offset 12, -16
	push	r11	#
	.cfi_def_cfa_offset 24
	.cfi_offset 11, -24
	push	r10	#
	.cfi_def_cfa_offset 32
	.cfi_offset 10, -32
	push	r9	#
	.cfi_def_cfa_offset 40
	.cfi_offset 9, -40
	push	r8	#
	.cfi_def_cfa_offset 48
	.cfi_offset 8, -48
	push	rdi	#
	.cfi_def_cfa_offset 56
	.cfi_offset 5, -56
	push	rax	#
	.cfi_def_cfa_offset 64
	.cfi_offset 0, -64
# handlers.c:1346:     long save_rax = __read_reg("rax");
#APP
# 1346 "handlers.c" 1
	mov r12, rax	# val
	
# 0 "" 2
# handlers.c:1348:     vmcall_5(det_sys_fchmodat,current_task,save_dfd,save_filename,save_mode,save_rax);
#NO_APP
	mov	r8d, DWORD PTR hypercall_info[rip+11232]	# hypercall_info.OsSpecificFields.CurrentTaskOffset, hypercall_info.OsSpecificFields.CurrentTaskOffset
#APP
# 1348 "handlers.c" 1
	mov r8, gs:[r8]	# ret, hypercall_info.OsSpecificFields.CurrentTaskOffset
# 0 "" 2
#NO_APP
	movsx	r9, DWORD PTR 72[rsp]	# __p2, save_dfd
	mov	r10, QWORD PTR 80[rsp]	# __p3, save_filename
	mov	r11, QWORD PTR 88[rsp]	# __p4, save_mode
	mov	edi, 63	#,
	call	vmcall	#
# handlers.c:1349: }
	pop	rax	#
	.cfi_def_cfa_offset 56
	pop	rdi	#
	.cfi_def_cfa_offset 48
	pop	r8	#
	.cfi_def_cfa_offset 40
	pop	r9	#
	.cfi_def_cfa_offset 32
	pop	r10	#
	.cfi_def_cfa_offset 24
	pop	r11	#
	.cfi_def_cfa_offset 16
	pop	r12	#
	.cfi_def_cfa_offset 8
	ret
	.cfi_endproc
.LFE99:
	.size	sys_fchmodat, .-sys_fchmodat
	.align 16
	.globl	pre_sys_fchmodat
	.type	pre_sys_fchmodat, @function
pre_sys_fchmodat:
.LFB100:
	.cfi_startproc
	push	rdi	#
	.cfi_def_cfa_offset 16
	.cfi_offset 5, -16
	push	rsi	#
	.cfi_def_cfa_offset 24
	.cfi_offset 4, -24
	push	rdx	#
	.cfi_def_cfa_offset 32
	.cfi_offset 1, -32
	push	rax	#
	.cfi_def_cfa_offset 40
	.cfi_offset 0, -40
# handlers.c:1355:     *skip_call=0;
	mov	rax, QWORD PTR 40[rsp]	# skip_call, skip_call
	mov	QWORD PTR [rax], 0	# *skip_call_2(D),
# handlers.c:1356:     *save_dfd=dfd;
	mov	rax, QWORD PTR 48[rsp]	# save_dfd, save_dfd
	mov	DWORD PTR [rax], edi	# *save_dfd_4(D), dfd
# handlers.c:1357:     *save_filename=filename;
	mov	rax, QWORD PTR 56[rsp]	# save_filename, save_filename
	mov	QWORD PTR [rax], rsi	# *save_filename_7(D), filename
# handlers.c:1358:     *save_mode=mode;
	mov	rax, QWORD PTR 64[rsp]	# save_mode, save_mode
	mov	QWORD PTR [rax], rdx	# *save_mode_10(D), mode
# handlers.c:1359: }
	pop	rax	#
	.cfi_def_cfa_offset 32
	pop	rdx	#
	.cfi_def_cfa_offset 24
	pop	rsi	#
	.cfi_def_cfa_offset 16
	pop	rdi	#
	.cfi_def_cfa_offset 8
	ret
	.cfi_endproc
.LFE100:
	.size	pre_sys_fchmodat, .-pre_sys_fchmodat
	.align 16
	.globl	sys_fchmod
	.type	sys_fchmod, @function
sys_fchmod:
.LFB101:
	.cfi_startproc
	push	r11	#
	.cfi_def_cfa_offset 16
	.cfi_offset 11, -16
	push	r10	#
	.cfi_def_cfa_offset 24
	.cfi_offset 10, -24
	push	r9	#
	.cfi_def_cfa_offset 32
	.cfi_offset 9, -32
	push	r8	#
	.cfi_def_cfa_offset 40
	.cfi_offset 8, -40
	push	rdi	#
	.cfi_def_cfa_offset 48
	.cfi_offset 5, -48
	push	rax	#
	.cfi_def_cfa_offset 56
	.cfi_offset 0, -56
# handlers.c:1364:     long save_rax = __read_reg("rax");
#APP
# 1364 "handlers.c" 1
	mov r11, rax	# val
	
# 0 "" 2
# handlers.c:1366:     vmcall_4(det_sys_fchmod,current_task,save_fd,save_mode,save_rax);
#NO_APP
	mov	r8d, DWORD PTR hypercall_info[rip+11232]	# hypercall_info.OsSpecificFields.CurrentTaskOffset, hypercall_info.OsSpecificFields.CurrentTaskOffset
#APP
# 1366 "handlers.c" 1
	mov r8, gs:[r8]	# ret, hypercall_info.OsSpecificFields.CurrentTaskOffset
# 0 "" 2
#NO_APP
	mov	r9d, DWORD PTR 64[rsp]	# __p2, save_fd
	mov	r10, QWORD PTR 72[rsp]	# __p3, save_mode
	mov	edi, 64	#,
	call	vmcall	#
# handlers.c:1367: }
	pop	rax	#
	.cfi_def_cfa_offset 48
	pop	rdi	#
	.cfi_def_cfa_offset 40
	pop	r8	#
	.cfi_def_cfa_offset 32
	pop	r9	#
	.cfi_def_cfa_offset 24
	pop	r10	#
	.cfi_def_cfa_offset 16
	pop	r11	#
	.cfi_def_cfa_offset 8
	ret
	.cfi_endproc
.LFE101:
	.size	sys_fchmod, .-sys_fchmod
	.align 16
	.globl	pre_sys_fchmod
	.type	pre_sys_fchmod, @function
pre_sys_fchmod:
.LFB102:
	.cfi_startproc
	push	rdi	#
	.cfi_def_cfa_offset 16
	.cfi_offset 5, -16
	push	rsi	#
	.cfi_def_cfa_offset 24
	.cfi_offset 4, -24
	push	rax	#
	.cfi_def_cfa_offset 32
	.cfi_offset 0, -32
# handlers.c:1373:     *skip_call=0;
	mov	rax, QWORD PTR 32[rsp]	# skip_call, skip_call
	mov	QWORD PTR [rax], 0	# *skip_call_2(D),
# handlers.c:1374:     *save_fd=fd;
	mov	rax, QWORD PTR 40[rsp]	# save_fd, save_fd
	mov	DWORD PTR [rax], edi	# *save_fd_4(D), fd
# handlers.c:1375:     *save_mode=mode;
	mov	rax, QWORD PTR 48[rsp]	# save_mode, save_mode
	mov	QWORD PTR [rax], rsi	# *save_mode_7(D), mode
# handlers.c:1376: }
	pop	rax	#
	.cfi_def_cfa_offset 24
	pop	rsi	#
	.cfi_def_cfa_offset 16
	pop	rdi	#
	.cfi_def_cfa_offset 8
	ret
	.cfi_endproc
.LFE102:
	.size	pre_sys_fchmod, .-pre_sys_fchmod
	.align 16
	.globl	sys_fchown
	.type	sys_fchown, @function
sys_fchown:
.LFB103:
	.cfi_startproc
	push	r12	#
	.cfi_def_cfa_offset 16
	.cfi_offset 12, -16
	push	r11	#
	.cfi_def_cfa_offset 24
	.cfi_offset 11, -24
	push	r10	#
	.cfi_def_cfa_offset 32
	.cfi_offset 10, -32
	push	r9	#
	.cfi_def_cfa_offset 40
	.cfi_offset 9, -40
	push	r8	#
	.cfi_def_cfa_offset 48
	.cfi_offset 8, -48
	push	rdi	#
	.cfi_def_cfa_offset 56
	.cfi_offset 5, -56
	push	rax	#
	.cfi_def_cfa_offset 64
	.cfi_offset 0, -64
# handlers.c:1382:     long save_rax = __read_reg("rax");
#APP
# 1382 "handlers.c" 1
	mov r12, rax	# val
	
# 0 "" 2
# handlers.c:1384:     vmcall_5(det_sys_fchown,current_task,save_fd,save_user,save_group,save_rax);
#NO_APP
	mov	r8d, DWORD PTR hypercall_info[rip+11232]	# hypercall_info.OsSpecificFields.CurrentTaskOffset, hypercall_info.OsSpecificFields.CurrentTaskOffset
#APP
# 1384 "handlers.c" 1
	mov r8, gs:[r8]	# ret, hypercall_info.OsSpecificFields.CurrentTaskOffset
# 0 "" 2
#NO_APP
	mov	r9d, DWORD PTR 72[rsp]	# __p2, save_fd
	mov	r10d, DWORD PTR 80[rsp]	# __p3, save_user
	mov	r11d, DWORD PTR 88[rsp]	# __p4, save_group
	mov	edi, 65	#,
	call	vmcall	#
# handlers.c:1385: }
	pop	rax	#
	.cfi_def_cfa_offset 56
	pop	rdi	#
	.cfi_def_cfa_offset 48
	pop	r8	#
	.cfi_def_cfa_offset 40
	pop	r9	#
	.cfi_def_cfa_offset 32
	pop	r10	#
	.cfi_def_cfa_offset 24
	pop	r11	#
	.cfi_def_cfa_offset 16
	pop	r12	#
	.cfi_def_cfa_offset 8
	ret
	.cfi_endproc
.LFE103:
	.size	sys_fchown, .-sys_fchown
	.align 16
	.globl	pre_sys_fchown
	.type	pre_sys_fchown, @function
pre_sys_fchown:
.LFB256:
	.cfi_startproc
	push	rdi	#
	.cfi_def_cfa_offset 16
	.cfi_offset 5, -16
	push	rsi	#
	.cfi_def_cfa_offset 24
	.cfi_offset 4, -24
	push	rdx	#
	.cfi_def_cfa_offset 32
	.cfi_offset 1, -32
	push	rax	#
	.cfi_def_cfa_offset 40
	.cfi_offset 0, -40
	mov	rax, QWORD PTR 40[rsp]	# skip_call, skip_call
	mov	QWORD PTR [rax], 0	# *skip_call_8(D),
	mov	rax, QWORD PTR 48[rsp]	# save_fd, save_fd
	mov	DWORD PTR [rax], edi	# *save_fd_9(D), fd
	mov	rax, QWORD PTR 56[rsp]	# save_user, save_user
	mov	DWORD PTR [rax], esi	# *save_user_10(D), user
	mov	rax, QWORD PTR 64[rsp]	# save_group, save_group
	mov	DWORD PTR [rax], edx	# *save_group_11(D), group
	pop	rax	#
	.cfi_def_cfa_offset 32
	pop	rdx	#
	.cfi_def_cfa_offset 24
	pop	rsi	#
	.cfi_def_cfa_offset 16
	pop	rdi	#
	.cfi_def_cfa_offset 8
	ret
	.cfi_endproc
.LFE256:
	.size	pre_sys_fchown, .-pre_sys_fchown
	.align 16
	.globl	sys_fchownat
	.type	sys_fchownat, @function
sys_fchownat:
.LFB105:
	.cfi_startproc
# handlers.c:1400: {
	push	r14	#
	.cfi_def_cfa_offset 16
	.cfi_offset 14, -16
	push	r13	#
	.cfi_def_cfa_offset 24
	.cfi_offset 13, -24
	push	r12	#
	.cfi_def_cfa_offset 32
	.cfi_offset 12, -32
	push	r11	#
	.cfi_def_cfa_offset 40
	.cfi_offset 11, -40
	push	r10	#
	.cfi_def_cfa_offset 48
	.cfi_offset 10, -48
	push	r9	#
	.cfi_def_cfa_offset 56
	.cfi_offset 9, -56
	push	r8	#
	.cfi_def_cfa_offset 64
	.cfi_offset 8, -64
	push	rdi	#
	.cfi_def_cfa_offset 72
	.cfi_offset 5, -72
	push	rax	#
	.cfi_def_cfa_offset 80
	.cfi_offset 0, -80
# handlers.c:1401:     long save_rax = __read_reg("rax");
#APP
# 1401 "handlers.c" 1
	mov r14, rax	# val
	
# 0 "" 2
# handlers.c:1403:     vmcall_7(det_sys_fchownat,current_task,save_dfd,save_filename,save_user,save_group,save_flag,save_rax);
#NO_APP
	mov	r8d, DWORD PTR hypercall_info[rip+11232]	# hypercall_info.OsSpecificFields.CurrentTaskOffset, hypercall_info.OsSpecificFields.CurrentTaskOffset
#APP
# 1403 "handlers.c" 1
	mov r8, gs:[r8]	# ret, hypercall_info.OsSpecificFields.CurrentTaskOffset
# 0 "" 2
#NO_APP
	movsx	r9, DWORD PTR 88[rsp]	# __p2, save_dfd
	mov	r10, QWORD PTR 96[rsp]	# __p3, save_filename
	mov	r11d, DWORD PTR 104[rsp]	# __p4, save_user
	mov	r12d, DWORD PTR 112[rsp]	# __p5, save_group
	movsx	r13, DWORD PTR 120[rsp]	# __p6, save_flag
	mov	edi, 66	#,
	call	vmcall	#
# handlers.c:1404: }
	pop	rax	#
	.cfi_def_cfa_offset 72
	pop	rdi	#
	.cfi_def_cfa_offset 64
	pop	r8	#
	.cfi_def_cfa_offset 56
	pop	r9	#
	.cfi_def_cfa_offset 48
	pop	r10	#
	.cfi_def_cfa_offset 40
	pop	r11	#
	.cfi_def_cfa_offset 32
	pop	r12	#
	.cfi_def_cfa_offset 24
	pop	r13	#
	.cfi_def_cfa_offset 16
	pop	r14	#
	.cfi_def_cfa_offset 8
	ret
	.cfi_endproc
.LFE105:
	.size	sys_fchownat, .-sys_fchownat
	.align 16
	.globl	pre_sys_fchownat
	.type	pre_sys_fchownat, @function
pre_sys_fchownat:
.LFB106:
	.cfi_startproc
	push	r8	#
	.cfi_def_cfa_offset 16
	.cfi_offset 8, -16
	push	rdi	#
	.cfi_def_cfa_offset 24
	.cfi_offset 5, -24
	push	rsi	#
	.cfi_def_cfa_offset 32
	.cfi_offset 4, -32
	push	rcx	#
	.cfi_def_cfa_offset 40
	.cfi_offset 2, -40
	push	rdx	#
	.cfi_def_cfa_offset 48
	.cfi_offset 1, -48
	push	rax	#
	.cfi_def_cfa_offset 56
	.cfi_offset 0, -56
# handlers.c:1410:     *skip_call=0;
	mov	rax, QWORD PTR 56[rsp]	# skip_call, skip_call
	mov	QWORD PTR [rax], 0	# *skip_call_2(D),
# handlers.c:1411:     *save_dfd=dfd;
	mov	rax, QWORD PTR 64[rsp]	# save_dfd, save_dfd
	mov	DWORD PTR [rax], edi	# *save_dfd_4(D), dfd
# handlers.c:1412:     *save_filename=filename;
	mov	rax, QWORD PTR 72[rsp]	# save_filename, save_filename
	mov	QWORD PTR [rax], rsi	# *save_filename_7(D), filename
# handlers.c:1413:     *save_user=user;
	mov	rax, QWORD PTR 80[rsp]	# save_user, save_user
	mov	DWORD PTR [rax], edx	# *save_user_10(D), user
# handlers.c:1414:     *save_group=group;
	mov	rax, QWORD PTR 88[rsp]	# save_group, save_group
	mov	DWORD PTR [rax], ecx	# *save_group_13(D), group
# handlers.c:1415:     *save_flag=flag;
	mov	rax, QWORD PTR 96[rsp]	# save_flag, save_flag
	mov	DWORD PTR [rax], r8d	# *save_flag_16(D), flag
# handlers.c:1416: }
	pop	rax	#
	.cfi_def_cfa_offset 48
	pop	rdx	#
	.cfi_def_cfa_offset 40
	pop	rcx	#
	.cfi_def_cfa_offset 32
	pop	rsi	#
	.cfi_def_cfa_offset 24
	pop	rdi	#
	.cfi_def_cfa_offset 16
	pop	r8	#
	.cfi_def_cfa_offset 8
	ret
	.cfi_endproc
.LFE106:
	.size	pre_sys_fchownat, .-pre_sys_fchownat
	.align 16
	.globl	sys_rename
	.type	sys_rename, @function
sys_rename:
.LFB107:
	.cfi_startproc
	push	r11	#
	.cfi_def_cfa_offset 16
	.cfi_offset 11, -16
	push	r10	#
	.cfi_def_cfa_offset 24
	.cfi_offset 10, -24
	push	r9	#
	.cfi_def_cfa_offset 32
	.cfi_offset 9, -32
	push	r8	#
	.cfi_def_cfa_offset 40
	.cfi_offset 8, -40
	push	rdi	#
	.cfi_def_cfa_offset 48
	.cfi_offset 5, -48
	push	rax	#
	.cfi_def_cfa_offset 56
	.cfi_offset 0, -56
# handlers.c:1422:     long save_rax = __read_reg("rax");
#APP
# 1422 "handlers.c" 1
	mov r11, rax	# val
	
# 0 "" 2
# handlers.c:1424:     vmcall_4(det_sys_rename,current_task,save_oldname,save_newname,save_rax);
#NO_APP
	mov	r8d, DWORD PTR hypercall_info[rip+11232]	# hypercall_info.OsSpecificFields.CurrentTaskOffset, hypercall_info.OsSpecificFields.CurrentTaskOffset
#APP
# 1424 "handlers.c" 1
	mov r8, gs:[r8]	# ret, hypercall_info.OsSpecificFields.CurrentTaskOffset
# 0 "" 2
#NO_APP
	mov	r9, QWORD PTR 64[rsp]	# __p2, save_oldname
	mov	r10, QWORD PTR 72[rsp]	# __p3, save_newname
	mov	edi, 67	#,
	call	vmcall	#
# handlers.c:1425: }
	pop	rax	#
	.cfi_def_cfa_offset 48
	pop	rdi	#
	.cfi_def_cfa_offset 40
	pop	r8	#
	.cfi_def_cfa_offset 32
	pop	r9	#
	.cfi_def_cfa_offset 24
	pop	r10	#
	.cfi_def_cfa_offset 16
	pop	r11	#
	.cfi_def_cfa_offset 8
	ret
	.cfi_endproc
.LFE107:
	.size	sys_rename, .-sys_rename
	.align 16
	.globl	pre_sys_rename
	.type	pre_sys_rename, @function
pre_sys_rename:
.LFB108:
	.cfi_startproc
	push	rdi	#
	.cfi_def_cfa_offset 16
	.cfi_offset 5, -16
	push	rsi	#
	.cfi_def_cfa_offset 24
	.cfi_offset 4, -24
	push	rax	#
	.cfi_def_cfa_offset 32
	.cfi_offset 0, -32
# handlers.c:1431:     *skip_call=0;
	mov	rax, QWORD PTR 32[rsp]	# skip_call, skip_call
	mov	QWORD PTR [rax], 0	# *skip_call_2(D),
# handlers.c:1432:     *save_oldname=oldname;
	mov	rax, QWORD PTR 40[rsp]	# save_oldname, save_oldname
	mov	QWORD PTR [rax], rdi	# *save_oldname_4(D), oldname
# handlers.c:1433:     *save_newname=newname;
	mov	rax, QWORD PTR 48[rsp]	# save_newname, save_newname
	mov	QWORD PTR [rax], rsi	# *save_newname_7(D), newname
# handlers.c:1434: }
	pop	rax	#
	.cfi_def_cfa_offset 24
	pop	rsi	#
	.cfi_def_cfa_offset 16
	pop	rdi	#
	.cfi_def_cfa_offset 8
	ret
	.cfi_endproc
.LFE108:
	.size	pre_sys_rename, .-pre_sys_rename
	.align 16
	.globl	sys_renameat2
	.type	sys_renameat2, @function
sys_renameat2:
.LFB109:
	.cfi_startproc
	push	r14	#
	.cfi_def_cfa_offset 16
	.cfi_offset 14, -16
	push	r13	#
	.cfi_def_cfa_offset 24
	.cfi_offset 13, -24
	push	r12	#
	.cfi_def_cfa_offset 32
	.cfi_offset 12, -32
	push	r11	#
	.cfi_def_cfa_offset 40
	.cfi_offset 11, -40
	push	r10	#
	.cfi_def_cfa_offset 48
	.cfi_offset 10, -48
	push	r9	#
	.cfi_def_cfa_offset 56
	.cfi_offset 9, -56
	push	r8	#
	.cfi_def_cfa_offset 64
	.cfi_offset 8, -64
	push	rdi	#
	.cfi_def_cfa_offset 72
	.cfi_offset 5, -72
	push	rax	#
	.cfi_def_cfa_offset 80
	.cfi_offset 0, -80
# handlers.c:1440:     long save_rax = __read_reg("rax");
#APP
# 1440 "handlers.c" 1
	mov r14, rax	# val
	
# 0 "" 2
# handlers.c:1442:     vmcall_7(det_sys_renameat2,current_task,save_olddfd,save_oldname,save_newdfd,save_newname,save_flags,save_rax);
#NO_APP
	mov	r8d, DWORD PTR hypercall_info[rip+11232]	# hypercall_info.OsSpecificFields.CurrentTaskOffset, hypercall_info.OsSpecificFields.CurrentTaskOffset
#APP
# 1442 "handlers.c" 1
	mov r8, gs:[r8]	# ret, hypercall_info.OsSpecificFields.CurrentTaskOffset
# 0 "" 2
#NO_APP
	movsx	r9, DWORD PTR 88[rsp]	# __p2, save_olddfd
	mov	r10, QWORD PTR 96[rsp]	# __p3, save_oldname
	movsx	r11, DWORD PTR 104[rsp]	# __p4, save_newdfd
	mov	r12, QWORD PTR 112[rsp]	# __p5, save_newname
	mov	r13d, DWORD PTR 120[rsp]	# __p6, save_flags
	mov	edi, 68	#,
	call	vmcall	#
# handlers.c:1443: }
	pop	rax	#
	.cfi_def_cfa_offset 72
	pop	rdi	#
	.cfi_def_cfa_offset 64
	pop	r8	#
	.cfi_def_cfa_offset 56
	pop	r9	#
	.cfi_def_cfa_offset 48
	pop	r10	#
	.cfi_def_cfa_offset 40
	pop	r11	#
	.cfi_def_cfa_offset 32
	pop	r12	#
	.cfi_def_cfa_offset 24
	pop	r13	#
	.cfi_def_cfa_offset 16
	pop	r14	#
	.cfi_def_cfa_offset 8
	ret
	.cfi_endproc
.LFE109:
	.size	sys_renameat2, .-sys_renameat2
	.align 16
	.globl	pre_sys_renameat2
	.type	pre_sys_renameat2, @function
pre_sys_renameat2:
.LFB110:
	.cfi_startproc
	push	r8	#
	.cfi_def_cfa_offset 16
	.cfi_offset 8, -16
	push	rdi	#
	.cfi_def_cfa_offset 24
	.cfi_offset 5, -24
	push	rsi	#
	.cfi_def_cfa_offset 32
	.cfi_offset 4, -32
	push	rcx	#
	.cfi_def_cfa_offset 40
	.cfi_offset 2, -40
	push	rdx	#
	.cfi_def_cfa_offset 48
	.cfi_offset 1, -48
	push	rax	#
	.cfi_def_cfa_offset 56
	.cfi_offset 0, -56
# handlers.c:1449:     *skip_call=0;
	mov	rax, QWORD PTR 56[rsp]	# skip_call, skip_call
	mov	QWORD PTR [rax], 0	# *skip_call_2(D),
# handlers.c:1450:     *save_olddfd=olddfd;
	mov	rax, QWORD PTR 64[rsp]	# save_olddfd, save_olddfd
	mov	DWORD PTR [rax], edi	# *save_olddfd_4(D), olddfd
# handlers.c:1451:     *save_oldname=oldname;
	mov	rax, QWORD PTR 72[rsp]	# save_oldname, save_oldname
	mov	QWORD PTR [rax], rsi	# *save_oldname_7(D), oldname
# handlers.c:1452:     *save_newdfd=newdfd;
	mov	rax, QWORD PTR 80[rsp]	# save_newdfd, save_newdfd
	mov	DWORD PTR [rax], edx	# *save_newdfd_10(D), newdfd
# handlers.c:1453:     *save_newname=newname;
	mov	rax, QWORD PTR 88[rsp]	# save_newname, save_newname
	mov	QWORD PTR [rax], rcx	# *save_newname_13(D), newname
# handlers.c:1454:     *save_flags=flags;
	mov	rax, QWORD PTR 96[rsp]	# save_flags, save_flags
	mov	DWORD PTR [rax], r8d	# *save_flags_16(D), flags
# handlers.c:1455: }
	pop	rax	#
	.cfi_def_cfa_offset 48
	pop	rdx	#
	.cfi_def_cfa_offset 40
	pop	rcx	#
	.cfi_def_cfa_offset 32
	pop	rsi	#
	.cfi_def_cfa_offset 24
	pop	rdi	#
	.cfi_def_cfa_offset 16
	pop	r8	#
	.cfi_def_cfa_offset 8
	ret
	.cfi_endproc
.LFE110:
	.size	pre_sys_renameat2, .-pre_sys_renameat2
	.align 16
	.globl	sys_renameat
	.type	sys_renameat, @function
sys_renameat:
.LFB111:
	.cfi_startproc
	push	r13	#
	.cfi_def_cfa_offset 16
	.cfi_offset 13, -16
	push	r12	#
	.cfi_def_cfa_offset 24
	.cfi_offset 12, -24
	push	r11	#
	.cfi_def_cfa_offset 32
	.cfi_offset 11, -32
	push	r10	#
	.cfi_def_cfa_offset 40
	.cfi_offset 10, -40
	push	r9	#
	.cfi_def_cfa_offset 48
	.cfi_offset 9, -48
	push	r8	#
	.cfi_def_cfa_offset 56
	.cfi_offset 8, -56
	push	rdi	#
	.cfi_def_cfa_offset 64
	.cfi_offset 5, -64
	push	rax	#
	.cfi_def_cfa_offset 72
	.cfi_offset 0, -72
# handlers.c:1461:     long save_rax = __read_reg("rax");
#APP
# 1461 "handlers.c" 1
	mov r13, rax	# val
	
# 0 "" 2
# handlers.c:1463:     vmcall_6(det_sys_renameat,current_task,save_olddfd,save_oldname,save_newdfd,save_newname,save_rax);
#NO_APP
	mov	r8d, DWORD PTR hypercall_info[rip+11232]	# hypercall_info.OsSpecificFields.CurrentTaskOffset, hypercall_info.OsSpecificFields.CurrentTaskOffset
#APP
# 1463 "handlers.c" 1
	mov r8, gs:[r8]	# ret, hypercall_info.OsSpecificFields.CurrentTaskOffset
# 0 "" 2
#NO_APP
	movsx	r9, DWORD PTR 80[rsp]	# __p2, save_olddfd
	mov	r10, QWORD PTR 88[rsp]	# __p3, save_oldname
	movsx	r11, DWORD PTR 96[rsp]	# __p4, save_newdfd
	mov	r12, QWORD PTR 104[rsp]	# __p5, save_newname
	mov	edi, 69	#,
	call	vmcall	#
# handlers.c:1464: }
	pop	rax	#
	.cfi_def_cfa_offset 64
	pop	rdi	#
	.cfi_def_cfa_offset 56
	pop	r8	#
	.cfi_def_cfa_offset 48
	pop	r9	#
	.cfi_def_cfa_offset 40
	pop	r10	#
	.cfi_def_cfa_offset 32
	pop	r11	#
	.cfi_def_cfa_offset 24
	pop	r12	#
	.cfi_def_cfa_offset 16
	pop	r13	#
	.cfi_def_cfa_offset 8
	ret
	.cfi_endproc
.LFE111:
	.size	sys_renameat, .-sys_renameat
	.align 16
	.globl	pre_sys_renameat
	.type	pre_sys_renameat, @function
pre_sys_renameat:
.LFB112:
	.cfi_startproc
	push	rdi	#
	.cfi_def_cfa_offset 16
	.cfi_offset 5, -16
	push	rsi	#
	.cfi_def_cfa_offset 24
	.cfi_offset 4, -24
	push	rcx	#
	.cfi_def_cfa_offset 32
	.cfi_offset 2, -32
	push	rdx	#
	.cfi_def_cfa_offset 40
	.cfi_offset 1, -40
	push	rax	#
	.cfi_def_cfa_offset 48
	.cfi_offset 0, -48
# handlers.c:1470:     *skip_call=0;
	mov	rax, QWORD PTR 48[rsp]	# skip_call, skip_call
	mov	QWORD PTR [rax], 0	# *skip_call_2(D),
# handlers.c:1471:     *save_olddfd=olddfd;
	mov	rax, QWORD PTR 56[rsp]	# save_olddfd, save_olddfd
	mov	DWORD PTR [rax], edi	# *save_olddfd_4(D), olddfd
# handlers.c:1472:     *save_oldname=oldname;
	mov	rax, QWORD PTR 64[rsp]	# save_oldname, save_oldname
	mov	QWORD PTR [rax], rsi	# *save_oldname_7(D), oldname
# handlers.c:1473:     *save_newdfd=newdfd;
	mov	rax, QWORD PTR 72[rsp]	# save_newdfd, save_newdfd
	mov	DWORD PTR [rax], edx	# *save_newdfd_10(D), newdfd
# handlers.c:1474:     *save_newname=newname;
	mov	rax, QWORD PTR 80[rsp]	# save_newname, save_newname
	mov	QWORD PTR [rax], rcx	# *save_newname_13(D), newname
# handlers.c:1475: }
	pop	rax	#
	.cfi_def_cfa_offset 40
	pop	rdx	#
	.cfi_def_cfa_offset 32
	pop	rcx	#
	.cfi_def_cfa_offset 24
	pop	rsi	#
	.cfi_def_cfa_offset 16
	pop	rdi	#
	.cfi_def_cfa_offset 8
	ret
	.cfi_endproc
.LFE112:
	.size	pre_sys_renameat, .-pre_sys_renameat
	.align 16
	.globl	sys_mkdir
	.type	sys_mkdir, @function
sys_mkdir:
.LFB113:
	.cfi_startproc
	push	r11	#
	.cfi_def_cfa_offset 16
	.cfi_offset 11, -16
	push	r10	#
	.cfi_def_cfa_offset 24
	.cfi_offset 10, -24
	push	r9	#
	.cfi_def_cfa_offset 32
	.cfi_offset 9, -32
	push	r8	#
	.cfi_def_cfa_offset 40
	.cfi_offset 8, -40
	push	rdi	#
	.cfi_def_cfa_offset 48
	.cfi_offset 5, -48
	push	rax	#
	.cfi_def_cfa_offset 56
	.cfi_offset 0, -56
# handlers.c:1481:     long save_rax = __read_reg("rax");
#APP
# 1481 "handlers.c" 1
	mov r11, rax	# val
	
# 0 "" 2
# handlers.c:1483:     vmcall_4(det_sys_mkdir,current_task,save_pathname,save_mode,save_rax);
#NO_APP
	mov	r8d, DWORD PTR hypercall_info[rip+11232]	# hypercall_info.OsSpecificFields.CurrentTaskOffset, hypercall_info.OsSpecificFields.CurrentTaskOffset
#APP
# 1483 "handlers.c" 1
	mov r8, gs:[r8]	# ret, hypercall_info.OsSpecificFields.CurrentTaskOffset
# 0 "" 2
#NO_APP
	mov	r9, QWORD PTR 64[rsp]	# __p2, save_pathname
	mov	r10, QWORD PTR 72[rsp]	# __p3, save_mode
	mov	edi, 70	#,
	call	vmcall	#
# handlers.c:1484: }
	pop	rax	#
	.cfi_def_cfa_offset 48
	pop	rdi	#
	.cfi_def_cfa_offset 40
	pop	r8	#
	.cfi_def_cfa_offset 32
	pop	r9	#
	.cfi_def_cfa_offset 24
	pop	r10	#
	.cfi_def_cfa_offset 16
	pop	r11	#
	.cfi_def_cfa_offset 8
	ret
	.cfi_endproc
.LFE113:
	.size	sys_mkdir, .-sys_mkdir
	.align 16
	.globl	pre_sys_mkdir
	.type	pre_sys_mkdir, @function
pre_sys_mkdir:
.LFB258:
	.cfi_startproc
	push	rdi	#
	.cfi_def_cfa_offset 16
	.cfi_offset 5, -16
	push	rsi	#
	.cfi_def_cfa_offset 24
	.cfi_offset 4, -24
	push	rax	#
	.cfi_def_cfa_offset 32
	.cfi_offset 0, -32
	mov	rax, QWORD PTR 32[rsp]	# skip_call, skip_call
	mov	QWORD PTR [rax], 0	# *skip_call_8(D),
	mov	rax, QWORD PTR 40[rsp]	# save_pathname, save_pathname
	mov	QWORD PTR [rax], rdi	# *save_pathname_9(D), pathname
	mov	rax, QWORD PTR 48[rsp]	# save_mode, save_mode
	mov	QWORD PTR [rax], rsi	# *save_mode_10(D), mode
	pop	rax	#
	.cfi_def_cfa_offset 24
	pop	rsi	#
	.cfi_def_cfa_offset 16
	pop	rdi	#
	.cfi_def_cfa_offset 8
	ret
	.cfi_endproc
.LFE258:
	.size	pre_sys_mkdir, .-pre_sys_mkdir
	.align 16
	.globl	sys_creat
	.type	sys_creat, @function
sys_creat:
.LFB115:
	.cfi_startproc
# handlers.c:1498: {
	push	r11	#
	.cfi_def_cfa_offset 16
	.cfi_offset 11, -16
	push	r10	#
	.cfi_def_cfa_offset 24
	.cfi_offset 10, -24
	push	r9	#
	.cfi_def_cfa_offset 32
	.cfi_offset 9, -32
	push	r8	#
	.cfi_def_cfa_offset 40
	.cfi_offset 8, -40
	push	rdi	#
	.cfi_def_cfa_offset 48
	.cfi_offset 5, -48
	push	rax	#
	.cfi_def_cfa_offset 56
	.cfi_offset 0, -56
# handlers.c:1499:     long save_rax = __read_reg("rax");
#APP
# 1499 "handlers.c" 1
	mov r11, rax	# val
	
# 0 "" 2
# handlers.c:1501:     vmcall_4(det_sys_creat,current_task,save_pathname,save_mode,save_rax);
#NO_APP
	mov	r8d, DWORD PTR hypercall_info[rip+11232]	# hypercall_info.OsSpecificFields.CurrentTaskOffset, hypercall_info.OsSpecificFields.CurrentTaskOffset
#APP
# 1501 "handlers.c" 1
	mov r8, gs:[r8]	# ret, hypercall_info.OsSpecificFields.CurrentTaskOffset
# 0 "" 2
#NO_APP
	mov	r9, QWORD PTR 64[rsp]	# __p2, save_pathname
	mov	r10, QWORD PTR 72[rsp]	# __p3, save_mode
	mov	edi, 71	#,
	call	vmcall	#
# handlers.c:1502: }
	pop	rax	#
	.cfi_def_cfa_offset 48
	pop	rdi	#
	.cfi_def_cfa_offset 40
	pop	r8	#
	.cfi_def_cfa_offset 32
	pop	r9	#
	.cfi_def_cfa_offset 24
	pop	r10	#
	.cfi_def_cfa_offset 16
	pop	r11	#
	.cfi_def_cfa_offset 8
	ret
	.cfi_endproc
.LFE115:
	.size	sys_creat, .-sys_creat
	.align 16
	.globl	pre_sys_creat
	.type	pre_sys_creat, @function
pre_sys_creat:
.LFB260:
	.cfi_startproc
	push	rdi	#
	.cfi_def_cfa_offset 16
	.cfi_offset 5, -16
	push	rsi	#
	.cfi_def_cfa_offset 24
	.cfi_offset 4, -24
	push	rax	#
	.cfi_def_cfa_offset 32
	.cfi_offset 0, -32
	mov	rax, QWORD PTR 32[rsp]	# skip_call, skip_call
	mov	QWORD PTR [rax], 0	# *skip_call_8(D),
	mov	rax, QWORD PTR 40[rsp]	# save_pathname, save_pathname
	mov	QWORD PTR [rax], rdi	# *save_pathname_9(D), pathname
	mov	rax, QWORD PTR 48[rsp]	# save_mode, save_mode
	mov	QWORD PTR [rax], rsi	# *save_mode_10(D), mode
	pop	rax	#
	.cfi_def_cfa_offset 24
	pop	rsi	#
	.cfi_def_cfa_offset 16
	pop	rdi	#
	.cfi_def_cfa_offset 8
	ret
	.cfi_endproc
.LFE260:
	.size	pre_sys_creat, .-pre_sys_creat
	.align 16
	.globl	sys_openat
	.type	sys_openat, @function
sys_openat:
.LFB117:
	.cfi_startproc
# handlers.c:1516: {
	push	r13	#
	.cfi_def_cfa_offset 16
	.cfi_offset 13, -16
	push	r12	#
	.cfi_def_cfa_offset 24
	.cfi_offset 12, -24
	push	r11	#
	.cfi_def_cfa_offset 32
	.cfi_offset 11, -32
	push	r10	#
	.cfi_def_cfa_offset 40
	.cfi_offset 10, -40
	push	r9	#
	.cfi_def_cfa_offset 48
	.cfi_offset 9, -48
	push	r8	#
	.cfi_def_cfa_offset 56
	.cfi_offset 8, -56
	push	rdi	#
	.cfi_def_cfa_offset 64
	.cfi_offset 5, -64
	push	rax	#
	.cfi_def_cfa_offset 72
	.cfi_offset 0, -72
# handlers.c:1517:     long save_rax = __read_reg("rax");
#APP
# 1517 "handlers.c" 1
	mov r13, rax	# val
	
# 0 "" 2
# handlers.c:1519:     vmcall_6(det_sys_openat,current_task,save_dfd,save_filename,save_flags,save_mode,save_rax);
#NO_APP
	mov	r8d, DWORD PTR hypercall_info[rip+11232]	# hypercall_info.OsSpecificFields.CurrentTaskOffset, hypercall_info.OsSpecificFields.CurrentTaskOffset
#APP
# 1519 "handlers.c" 1
	mov r8, gs:[r8]	# ret, hypercall_info.OsSpecificFields.CurrentTaskOffset
# 0 "" 2
#NO_APP
	movsx	r9, DWORD PTR 80[rsp]	# __p2, save_dfd
	mov	r10, QWORD PTR 88[rsp]	# __p3, save_filename
	movsx	r11, DWORD PTR 96[rsp]	# __p4, save_flags
	mov	r12, QWORD PTR 104[rsp]	# __p5, save_mode
	mov	edi, 72	#,
	call	vmcall	#
# handlers.c:1520: }
	pop	rax	#
	.cfi_def_cfa_offset 64
	pop	rdi	#
	.cfi_def_cfa_offset 56
	pop	r8	#
	.cfi_def_cfa_offset 48
	pop	r9	#
	.cfi_def_cfa_offset 40
	pop	r10	#
	.cfi_def_cfa_offset 32
	pop	r11	#
	.cfi_def_cfa_offset 24
	pop	r12	#
	.cfi_def_cfa_offset 16
	pop	r13	#
	.cfi_def_cfa_offset 8
	ret
	.cfi_endproc
.LFE117:
	.size	sys_openat, .-sys_openat
	.align 16
	.globl	pre_sys_openat
	.type	pre_sys_openat, @function
pre_sys_openat:
.LFB118:
	.cfi_startproc
	push	rdi	#
	.cfi_def_cfa_offset 16
	.cfi_offset 5, -16
	push	rsi	#
	.cfi_def_cfa_offset 24
	.cfi_offset 4, -24
	push	rcx	#
	.cfi_def_cfa_offset 32
	.cfi_offset 2, -32
	push	rdx	#
	.cfi_def_cfa_offset 40
	.cfi_offset 1, -40
	push	rax	#
	.cfi_def_cfa_offset 48
	.cfi_offset 0, -48
# handlers.c:1526:     *skip_call=0;
	mov	rax, QWORD PTR 48[rsp]	# skip_call, skip_call
	mov	QWORD PTR [rax], 0	# *skip_call_2(D),
# handlers.c:1527:     *save_dfd=dfd;
	mov	rax, QWORD PTR 56[rsp]	# save_dfd, save_dfd
	mov	DWORD PTR [rax], edi	# *save_dfd_4(D), dfd
# handlers.c:1528:     *save_filename=filename;
	mov	rax, QWORD PTR 64[rsp]	# save_filename, save_filename
	mov	QWORD PTR [rax], rsi	# *save_filename_7(D), filename
# handlers.c:1529:     *save_flags=flags;
	mov	rax, QWORD PTR 72[rsp]	# save_flags, save_flags
	mov	DWORD PTR [rax], edx	# *save_flags_10(D), flags
# handlers.c:1530:     *save_mode=mode;
	mov	rax, QWORD PTR 80[rsp]	# save_mode, save_mode
	mov	QWORD PTR [rax], rcx	# *save_mode_13(D), mode
# handlers.c:1531: }
	pop	rax	#
	.cfi_def_cfa_offset 40
	pop	rdx	#
	.cfi_def_cfa_offset 32
	pop	rcx	#
	.cfi_def_cfa_offset 24
	pop	rsi	#
	.cfi_def_cfa_offset 16
	pop	rdi	#
	.cfi_def_cfa_offset 8
	ret
	.cfi_endproc
.LFE118:
	.size	pre_sys_openat, .-pre_sys_openat
	.align 16
	.globl	sys_link
	.type	sys_link, @function
sys_link:
.LFB119:
	.cfi_startproc
	push	r11	#
	.cfi_def_cfa_offset 16
	.cfi_offset 11, -16
	push	r10	#
	.cfi_def_cfa_offset 24
	.cfi_offset 10, -24
	push	r9	#
	.cfi_def_cfa_offset 32
	.cfi_offset 9, -32
	push	r8	#
	.cfi_def_cfa_offset 40
	.cfi_offset 8, -40
	push	rdi	#
	.cfi_def_cfa_offset 48
	.cfi_offset 5, -48
	push	rax	#
	.cfi_def_cfa_offset 56
	.cfi_offset 0, -56
# handlers.c:1537:     long save_rax = __read_reg("rax");
#APP
# 1537 "handlers.c" 1
	mov r11, rax	# val
	
# 0 "" 2
# handlers.c:1539:     vmcall_4(det_sys_link,current_task,save_oldname,save_newname,save_rax);
#NO_APP
	mov	r8d, DWORD PTR hypercall_info[rip+11232]	# hypercall_info.OsSpecificFields.CurrentTaskOffset, hypercall_info.OsSpecificFields.CurrentTaskOffset
#APP
# 1539 "handlers.c" 1
	mov r8, gs:[r8]	# ret, hypercall_info.OsSpecificFields.CurrentTaskOffset
# 0 "" 2
#NO_APP
	mov	r9, QWORD PTR 64[rsp]	# __p2, save_oldname
	mov	r10, QWORD PTR 72[rsp]	# __p3, save_newname
	mov	edi, 73	#,
	call	vmcall	#
# handlers.c:1540: }
	pop	rax	#
	.cfi_def_cfa_offset 48
	pop	rdi	#
	.cfi_def_cfa_offset 40
	pop	r8	#
	.cfi_def_cfa_offset 32
	pop	r9	#
	.cfi_def_cfa_offset 24
	pop	r10	#
	.cfi_def_cfa_offset 16
	pop	r11	#
	.cfi_def_cfa_offset 8
	ret
	.cfi_endproc
.LFE119:
	.size	sys_link, .-sys_link
	.align 16
	.globl	pre_sys_link
	.type	pre_sys_link, @function
pre_sys_link:
.LFB242:
	.cfi_startproc
	push	rdi	#
	.cfi_def_cfa_offset 16
	.cfi_offset 5, -16
	push	rsi	#
	.cfi_def_cfa_offset 24
	.cfi_offset 4, -24
	push	rax	#
	.cfi_def_cfa_offset 32
	.cfi_offset 0, -32
	mov	rax, QWORD PTR 32[rsp]	# skip_call, skip_call
	mov	QWORD PTR [rax], 0	# *skip_call_8(D),
	mov	rax, QWORD PTR 40[rsp]	# save_oldname, save_oldname
	mov	QWORD PTR [rax], rdi	# *save_oldname_9(D), oldname
	mov	rax, QWORD PTR 48[rsp]	# save_newname, save_newname
	mov	QWORD PTR [rax], rsi	# *save_newname_10(D), newname
	pop	rax	#
	.cfi_def_cfa_offset 24
	pop	rsi	#
	.cfi_def_cfa_offset 16
	pop	rdi	#
	.cfi_def_cfa_offset 8
	ret
	.cfi_endproc
.LFE242:
	.size	pre_sys_link, .-pre_sys_link
	.align 16
	.globl	sys_unlink
	.type	sys_unlink, @function
sys_unlink:
.LFB121:
	.cfi_startproc
# handlers.c:1554: {
	push	r10	#
	.cfi_def_cfa_offset 16
	.cfi_offset 10, -16
	push	r9	#
	.cfi_def_cfa_offset 24
	.cfi_offset 9, -24
	push	r8	#
	.cfi_def_cfa_offset 32
	.cfi_offset 8, -32
	push	rdi	#
	.cfi_def_cfa_offset 40
	.cfi_offset 5, -40
	push	rax	#
	.cfi_def_cfa_offset 48
	.cfi_offset 0, -48
# handlers.c:1555:     long save_rax = __read_reg("rax");
#APP
# 1555 "handlers.c" 1
	mov r10, rax	# val
	
# 0 "" 2
# handlers.c:1557:     vmcall_3(det_sys_unlink,current_task,save_pathname,save_rax);
#NO_APP
	mov	r8d, DWORD PTR hypercall_info[rip+11232]	# hypercall_info.OsSpecificFields.CurrentTaskOffset, hypercall_info.OsSpecificFields.CurrentTaskOffset
#APP
# 1557 "handlers.c" 1
	mov r8, gs:[r8]	# ret, hypercall_info.OsSpecificFields.CurrentTaskOffset
# 0 "" 2
#NO_APP
	mov	r9, QWORD PTR 56[rsp]	# __p2, save_pathname
	mov	edi, 74	#,
	call	vmcall	#
# handlers.c:1558: }
	pop	rax	#
	.cfi_def_cfa_offset 40
	pop	rdi	#
	.cfi_def_cfa_offset 32
	pop	r8	#
	.cfi_def_cfa_offset 24
	pop	r9	#
	.cfi_def_cfa_offset 16
	pop	r10	#
	.cfi_def_cfa_offset 8
	ret
	.cfi_endproc
.LFE121:
	.size	sys_unlink, .-sys_unlink
	.align 16
	.globl	pre_sys_unlink
	.type	pre_sys_unlink, @function
pre_sys_unlink:
.LFB210:
	.cfi_startproc
	push	rdi	#
	.cfi_def_cfa_offset 16
	.cfi_offset 5, -16
	push	rax	#
	.cfi_def_cfa_offset 24
	.cfi_offset 0, -24
	mov	rax, QWORD PTR 24[rsp]	# skip_call, skip_call
	mov	QWORD PTR [rax], 0	# *skip_call_8(D),
	mov	rax, QWORD PTR 32[rsp]	# save_pathname, save_pathname
	mov	QWORD PTR [rax], rdi	# *save_pathname_9(D), pathname
	pop	rax	#
	.cfi_def_cfa_offset 16
	pop	rdi	#
	.cfi_def_cfa_offset 8
	ret
	.cfi_endproc
.LFE210:
	.size	pre_sys_unlink, .-pre_sys_unlink
	.align 16
	.globl	sys_unlinkat
	.type	sys_unlinkat, @function
sys_unlinkat:
.LFB123:
	.cfi_startproc
# handlers.c:1571: {
	push	r12	#
	.cfi_def_cfa_offset 16
	.cfi_offset 12, -16
	push	r11	#
	.cfi_def_cfa_offset 24
	.cfi_offset 11, -24
	push	r10	#
	.cfi_def_cfa_offset 32
	.cfi_offset 10, -32
	push	r9	#
	.cfi_def_cfa_offset 40
	.cfi_offset 9, -40
	push	r8	#
	.cfi_def_cfa_offset 48
	.cfi_offset 8, -48
	push	rdi	#
	.cfi_def_cfa_offset 56
	.cfi_offset 5, -56
	push	rax	#
	.cfi_def_cfa_offset 64
	.cfi_offset 0, -64
# handlers.c:1572:     long save_rax = __read_reg("rax");
#APP
# 1572 "handlers.c" 1
	mov r12, rax	# val
	
# 0 "" 2
# handlers.c:1574:     vmcall_5(det_sys_unlinkat,current_task,save_dfd,save_pathname,save_flag,save_rax);
#NO_APP
	mov	r8d, DWORD PTR hypercall_info[rip+11232]	# hypercall_info.OsSpecificFields.CurrentTaskOffset, hypercall_info.OsSpecificFields.CurrentTaskOffset
#APP
# 1574 "handlers.c" 1
	mov r8, gs:[r8]	# ret, hypercall_info.OsSpecificFields.CurrentTaskOffset
# 0 "" 2
#NO_APP
	movsx	r9, DWORD PTR 72[rsp]	# __p2, save_dfd
	mov	r10, QWORD PTR 80[rsp]	# __p3, save_pathname
	movsx	r11, DWORD PTR 88[rsp]	# __p4, save_flag
	mov	edi, 75	#,
	call	vmcall	#
# handlers.c:1575: }
	pop	rax	#
	.cfi_def_cfa_offset 56
	pop	rdi	#
	.cfi_def_cfa_offset 48
	pop	r8	#
	.cfi_def_cfa_offset 40
	pop	r9	#
	.cfi_def_cfa_offset 32
	pop	r10	#
	.cfi_def_cfa_offset 24
	pop	r11	#
	.cfi_def_cfa_offset 16
	pop	r12	#
	.cfi_def_cfa_offset 8
	ret
	.cfi_endproc
.LFE123:
	.size	sys_unlinkat, .-sys_unlinkat
	.align 16
	.globl	pre_sys_unlinkat
	.type	pre_sys_unlinkat, @function
pre_sys_unlinkat:
.LFB124:
	.cfi_startproc
	push	rdi	#
	.cfi_def_cfa_offset 16
	.cfi_offset 5, -16
	push	rsi	#
	.cfi_def_cfa_offset 24
	.cfi_offset 4, -24
	push	rdx	#
	.cfi_def_cfa_offset 32
	.cfi_offset 1, -32
	push	rax	#
	.cfi_def_cfa_offset 40
	.cfi_offset 0, -40
# handlers.c:1581:     *skip_call=0;
	mov	rax, QWORD PTR 40[rsp]	# skip_call, skip_call
	mov	QWORD PTR [rax], 0	# *skip_call_2(D),
# handlers.c:1582:     *save_dfd=dfd;
	mov	rax, QWORD PTR 48[rsp]	# save_dfd, save_dfd
	mov	DWORD PTR [rax], edi	# *save_dfd_4(D), dfd
# handlers.c:1583:     *save_pathname=pathname;
	mov	rax, QWORD PTR 56[rsp]	# save_pathname, save_pathname
	mov	QWORD PTR [rax], rsi	# *save_pathname_7(D), pathname
# handlers.c:1584:     *save_flag=flag;
	mov	rax, QWORD PTR 64[rsp]	# save_flag, save_flag
	mov	DWORD PTR [rax], edx	# *save_flag_10(D), flag
# handlers.c:1585: }
	pop	rax	#
	.cfi_def_cfa_offset 32
	pop	rdx	#
	.cfi_def_cfa_offset 24
	pop	rsi	#
	.cfi_def_cfa_offset 16
	pop	rdi	#
	.cfi_def_cfa_offset 8
	ret
	.cfi_endproc
.LFE124:
	.size	pre_sys_unlinkat, .-pre_sys_unlinkat
	.align 16
	.globl	sys_linkat
	.type	sys_linkat, @function
sys_linkat:
.LFB125:
	.cfi_startproc
	push	r14	#
	.cfi_def_cfa_offset 16
	.cfi_offset 14, -16
	push	r13	#
	.cfi_def_cfa_offset 24
	.cfi_offset 13, -24
	push	r12	#
	.cfi_def_cfa_offset 32
	.cfi_offset 12, -32
	push	r11	#
	.cfi_def_cfa_offset 40
	.cfi_offset 11, -40
	push	r10	#
	.cfi_def_cfa_offset 48
	.cfi_offset 10, -48
	push	r9	#
	.cfi_def_cfa_offset 56
	.cfi_offset 9, -56
	push	r8	#
	.cfi_def_cfa_offset 64
	.cfi_offset 8, -64
	push	rdi	#
	.cfi_def_cfa_offset 72
	.cfi_offset 5, -72
	push	rax	#
	.cfi_def_cfa_offset 80
	.cfi_offset 0, -80
# handlers.c:1591:     long save_rax = __read_reg("rax");
#APP
# 1591 "handlers.c" 1
	mov r14, rax	# val
	
# 0 "" 2
# handlers.c:1593:     vmcall_7(det_sys_linkat,current_task,save_olddfd,save_oldname,save_newdfd,save_newname,save_flags,save_rax);
#NO_APP
	mov	r8d, DWORD PTR hypercall_info[rip+11232]	# hypercall_info.OsSpecificFields.CurrentTaskOffset, hypercall_info.OsSpecificFields.CurrentTaskOffset
#APP
# 1593 "handlers.c" 1
	mov r8, gs:[r8]	# ret, hypercall_info.OsSpecificFields.CurrentTaskOffset
# 0 "" 2
#NO_APP
	movsx	r9, DWORD PTR 88[rsp]	# __p2, save_olddfd
	mov	r10, QWORD PTR 96[rsp]	# __p3, save_oldname
	movsx	r11, DWORD PTR 104[rsp]	# __p4, save_newdfd
	mov	r12, QWORD PTR 112[rsp]	# __p5, save_newname
	mov	r13d, DWORD PTR 120[rsp]	# __p6, save_flags
	mov	edi, 76	#,
	call	vmcall	#
# handlers.c:1594: }
	pop	rax	#
	.cfi_def_cfa_offset 72
	pop	rdi	#
	.cfi_def_cfa_offset 64
	pop	r8	#
	.cfi_def_cfa_offset 56
	pop	r9	#
	.cfi_def_cfa_offset 48
	pop	r10	#
	.cfi_def_cfa_offset 40
	pop	r11	#
	.cfi_def_cfa_offset 32
	pop	r12	#
	.cfi_def_cfa_offset 24
	pop	r13	#
	.cfi_def_cfa_offset 16
	pop	r14	#
	.cfi_def_cfa_offset 8
	ret
	.cfi_endproc
.LFE125:
	.size	sys_linkat, .-sys_linkat
	.align 16
	.globl	pre_sys_linkat
	.type	pre_sys_linkat, @function
pre_sys_linkat:
.LFB264:
	.cfi_startproc
	push	r8	#
	.cfi_def_cfa_offset 16
	.cfi_offset 8, -16
	push	rdi	#
	.cfi_def_cfa_offset 24
	.cfi_offset 5, -24
	push	rsi	#
	.cfi_def_cfa_offset 32
	.cfi_offset 4, -32
	push	rcx	#
	.cfi_def_cfa_offset 40
	.cfi_offset 2, -40
	push	rdx	#
	.cfi_def_cfa_offset 48
	.cfi_offset 1, -48
	push	rax	#
	.cfi_def_cfa_offset 56
	.cfi_offset 0, -56
	mov	rax, QWORD PTR 56[rsp]	# skip_call, skip_call
	mov	QWORD PTR [rax], 0	# *skip_call_8(D),
	mov	rax, QWORD PTR 64[rsp]	# save_olddfd, save_olddfd
	mov	DWORD PTR [rax], edi	# *save_olddfd_9(D), olddfd
	mov	rax, QWORD PTR 72[rsp]	# save_oldname, save_oldname
	mov	QWORD PTR [rax], rsi	# *save_oldname_10(D), oldname
	mov	rax, QWORD PTR 80[rsp]	# save_newdfd, save_newdfd
	mov	DWORD PTR [rax], edx	# *save_newdfd_11(D), newdfd
	mov	rax, QWORD PTR 88[rsp]	# save_newname, save_newname
	mov	QWORD PTR [rax], rcx	# *save_newname_12(D), newname
	mov	rax, QWORD PTR 96[rsp]	# save_flags, save_flags
	mov	DWORD PTR [rax], r8d	# *save_flags_13(D), flags
	pop	rax	#
	.cfi_def_cfa_offset 48
	pop	rdx	#
	.cfi_def_cfa_offset 40
	pop	rcx	#
	.cfi_def_cfa_offset 32
	pop	rsi	#
	.cfi_def_cfa_offset 24
	pop	rdi	#
	.cfi_def_cfa_offset 16
	pop	r8	#
	.cfi_def_cfa_offset 8
	ret
	.cfi_endproc
.LFE264:
	.size	pre_sys_linkat, .-pre_sys_linkat
	.align 16
	.globl	sys_symlinkat
	.type	sys_symlinkat, @function
sys_symlinkat:
.LFB127:
	.cfi_startproc
# handlers.c:1611: {
	push	r12	#
	.cfi_def_cfa_offset 16
	.cfi_offset 12, -16
	push	r11	#
	.cfi_def_cfa_offset 24
	.cfi_offset 11, -24
	push	r10	#
	.cfi_def_cfa_offset 32
	.cfi_offset 10, -32
	push	r9	#
	.cfi_def_cfa_offset 40
	.cfi_offset 9, -40
	push	r8	#
	.cfi_def_cfa_offset 48
	.cfi_offset 8, -48
	push	rdi	#
	.cfi_def_cfa_offset 56
	.cfi_offset 5, -56
	push	rax	#
	.cfi_def_cfa_offset 64
	.cfi_offset 0, -64
# handlers.c:1612:     long save_rax = __read_reg("rax");
#APP
# 1612 "handlers.c" 1
	mov r12, rax	# val
	
# 0 "" 2
# handlers.c:1614:     vmcall_5(det_sys_symlinkat,current_task,save_oldname,save_newdfd,save_newname,save_rax);
#NO_APP
	mov	r8d, DWORD PTR hypercall_info[rip+11232]	# hypercall_info.OsSpecificFields.CurrentTaskOffset, hypercall_info.OsSpecificFields.CurrentTaskOffset
#APP
# 1614 "handlers.c" 1
	mov r8, gs:[r8]	# ret, hypercall_info.OsSpecificFields.CurrentTaskOffset
# 0 "" 2
#NO_APP
	mov	r9, QWORD PTR 72[rsp]	# __p2, save_oldname
	movsx	r10, DWORD PTR 80[rsp]	# __p3, save_newdfd
	mov	r11, QWORD PTR 88[rsp]	# __p4, save_newname
	mov	edi, 78	#,
	call	vmcall	#
# handlers.c:1615: }
	pop	rax	#
	.cfi_def_cfa_offset 56
	pop	rdi	#
	.cfi_def_cfa_offset 48
	pop	r8	#
	.cfi_def_cfa_offset 40
	pop	r9	#
	.cfi_def_cfa_offset 32
	pop	r10	#
	.cfi_def_cfa_offset 24
	pop	r11	#
	.cfi_def_cfa_offset 16
	pop	r12	#
	.cfi_def_cfa_offset 8
	ret
	.cfi_endproc
.LFE127:
	.size	sys_symlinkat, .-sys_symlinkat
	.align 16
	.globl	pre_sys_symlinkat
	.type	pre_sys_symlinkat, @function
pre_sys_symlinkat:
.LFB128:
	.cfi_startproc
	push	rdi	#
	.cfi_def_cfa_offset 16
	.cfi_offset 5, -16
	push	rsi	#
	.cfi_def_cfa_offset 24
	.cfi_offset 4, -24
	push	rdx	#
	.cfi_def_cfa_offset 32
	.cfi_offset 1, -32
	push	rax	#
	.cfi_def_cfa_offset 40
	.cfi_offset 0, -40
# handlers.c:1621:     *skip_call=0;
	mov	rax, QWORD PTR 40[rsp]	# skip_call, skip_call
	mov	QWORD PTR [rax], 0	# *skip_call_2(D),
# handlers.c:1622:     *save_oldname=oldname;
	mov	rax, QWORD PTR 48[rsp]	# save_oldname, save_oldname
	mov	QWORD PTR [rax], rdi	# *save_oldname_4(D), oldname
# handlers.c:1623:     *save_newdfd=newdfd;
	mov	rax, QWORD PTR 56[rsp]	# save_newdfd, save_newdfd
	mov	DWORD PTR [rax], esi	# *save_newdfd_7(D), newdfd
# handlers.c:1624:     *save_newname=newname;
	mov	rax, QWORD PTR 64[rsp]	# save_newname, save_newname
	mov	QWORD PTR [rax], rdx	# *save_newname_10(D), newname
# handlers.c:1625: }
	pop	rax	#
	.cfi_def_cfa_offset 32
	pop	rdx	#
	.cfi_def_cfa_offset 24
	pop	rsi	#
	.cfi_def_cfa_offset 16
	pop	rdi	#
	.cfi_def_cfa_offset 8
	ret
	.cfi_endproc
.LFE128:
	.size	pre_sys_symlinkat, .-pre_sys_symlinkat
	.align 16
	.globl	sys_symlink
	.type	sys_symlink, @function
sys_symlink:
.LFB129:
	.cfi_startproc
	push	r11	#
	.cfi_def_cfa_offset 16
	.cfi_offset 11, -16
	push	r10	#
	.cfi_def_cfa_offset 24
	.cfi_offset 10, -24
	push	r9	#
	.cfi_def_cfa_offset 32
	.cfi_offset 9, -32
	push	r8	#
	.cfi_def_cfa_offset 40
	.cfi_offset 8, -40
	push	rdi	#
	.cfi_def_cfa_offset 48
	.cfi_offset 5, -48
	push	rax	#
	.cfi_def_cfa_offset 56
	.cfi_offset 0, -56
# handlers.c:1631:     long save_rax = __read_reg("rax");
#APP
# 1631 "handlers.c" 1
	mov r11, rax	# val
	
# 0 "" 2
# handlers.c:1633:     vmcall_4(det_sys_symlink,current_task,save_old,save_new,save_rax);
#NO_APP
	mov	r8d, DWORD PTR hypercall_info[rip+11232]	# hypercall_info.OsSpecificFields.CurrentTaskOffset, hypercall_info.OsSpecificFields.CurrentTaskOffset
#APP
# 1633 "handlers.c" 1
	mov r8, gs:[r8]	# ret, hypercall_info.OsSpecificFields.CurrentTaskOffset
# 0 "" 2
#NO_APP
	mov	r9, QWORD PTR 64[rsp]	# __p2, save_old
	mov	r10, QWORD PTR 72[rsp]	# __p3, save_new
	mov	edi, 77	#,
	call	vmcall	#
# handlers.c:1634: }
	pop	rax	#
	.cfi_def_cfa_offset 48
	pop	rdi	#
	.cfi_def_cfa_offset 40
	pop	r8	#
	.cfi_def_cfa_offset 32
	pop	r9	#
	.cfi_def_cfa_offset 24
	pop	r10	#
	.cfi_def_cfa_offset 16
	pop	r11	#
	.cfi_def_cfa_offset 8
	ret
	.cfi_endproc
.LFE129:
	.size	sys_symlink, .-sys_symlink
	.align 16
	.globl	pre_sys_symlink
	.type	pre_sys_symlink, @function
pre_sys_symlink:
.LFB244:
	.cfi_startproc
	push	rdi	#
	.cfi_def_cfa_offset 16
	.cfi_offset 5, -16
	push	rsi	#
	.cfi_def_cfa_offset 24
	.cfi_offset 4, -24
	push	rax	#
	.cfi_def_cfa_offset 32
	.cfi_offset 0, -32
	mov	rax, QWORD PTR 32[rsp]	# skip_call, skip_call
	mov	QWORD PTR [rax], 0	# *skip_call_8(D),
	mov	rax, QWORD PTR 40[rsp]	# save_old, save_old
	mov	QWORD PTR [rax], rdi	# *save_old_9(D), old
	mov	rax, QWORD PTR 48[rsp]	# save_new, save_new
	mov	QWORD PTR [rax], rsi	# *save_new_10(D), new
	pop	rax	#
	.cfi_def_cfa_offset 24
	pop	rsi	#
	.cfi_def_cfa_offset 16
	pop	rdi	#
	.cfi_def_cfa_offset 8
	ret
	.cfi_endproc
.LFE244:
	.size	pre_sys_symlink, .-pre_sys_symlink
	.align 16
	.globl	sys_access
	.type	sys_access, @function
sys_access:
.LFB131:
	.cfi_startproc
# handlers.c:1648: {
	push	r11	#
	.cfi_def_cfa_offset 16
	.cfi_offset 11, -16
	push	r10	#
	.cfi_def_cfa_offset 24
	.cfi_offset 10, -24
	push	r9	#
	.cfi_def_cfa_offset 32
	.cfi_offset 9, -32
	push	r8	#
	.cfi_def_cfa_offset 40
	.cfi_offset 8, -40
	push	rdi	#
	.cfi_def_cfa_offset 48
	.cfi_offset 5, -48
	push	rax	#
	.cfi_def_cfa_offset 56
	.cfi_offset 0, -56
# handlers.c:1649:     long save_rax = __read_reg("rax");
#APP
# 1649 "handlers.c" 1
	mov r11, rax	# val
	
# 0 "" 2
# handlers.c:1651:     vmcall_4(det_sys_access,current_task,save_filename,save_mode,save_rax);
#NO_APP
	mov	r8d, DWORD PTR hypercall_info[rip+11232]	# hypercall_info.OsSpecificFields.CurrentTaskOffset, hypercall_info.OsSpecificFields.CurrentTaskOffset
#APP
# 1651 "handlers.c" 1
	mov r8, gs:[r8]	# ret, hypercall_info.OsSpecificFields.CurrentTaskOffset
# 0 "" 2
#NO_APP
	mov	r9, QWORD PTR 64[rsp]	# __p2, save_filename
	mov	r10, QWORD PTR 72[rsp]	# __p3, save_mode
	mov	edi, 79	#,
	call	vmcall	#
# handlers.c:1652: }
	pop	rax	#
	.cfi_def_cfa_offset 48
	pop	rdi	#
	.cfi_def_cfa_offset 40
	pop	r8	#
	.cfi_def_cfa_offset 32
	pop	r9	#
	.cfi_def_cfa_offset 24
	pop	r10	#
	.cfi_def_cfa_offset 16
	pop	r11	#
	.cfi_def_cfa_offset 8
	ret
	.cfi_endproc
.LFE131:
	.size	sys_access, .-sys_access
	.align 16
	.globl	pre_sys_access
	.type	pre_sys_access, @function
pre_sys_access:
.LFB262:
	.cfi_startproc
	push	rdi	#
	.cfi_def_cfa_offset 16
	.cfi_offset 5, -16
	push	rsi	#
	.cfi_def_cfa_offset 24
	.cfi_offset 4, -24
	push	rax	#
	.cfi_def_cfa_offset 32
	.cfi_offset 0, -32
	mov	rax, QWORD PTR 32[rsp]	# skip_call, skip_call
	mov	QWORD PTR [rax], 0	# *skip_call_8(D),
	mov	rax, QWORD PTR 40[rsp]	# save_filename, save_filename
	mov	QWORD PTR [rax], rdi	# *save_filename_9(D), filename
	mov	rax, QWORD PTR 48[rsp]	# save_mode, save_mode
	mov	QWORD PTR [rax], rsi	# *save_mode_10(D), mode
	pop	rax	#
	.cfi_def_cfa_offset 24
	pop	rsi	#
	.cfi_def_cfa_offset 16
	pop	rdi	#
	.cfi_def_cfa_offset 8
	ret
	.cfi_endproc
.LFE262:
	.size	pre_sys_access, .-pre_sys_access
	.align 16
	.globl	sys_fstat
	.type	sys_fstat, @function
sys_fstat:
.LFB133:
	.cfi_startproc
# handlers.c:1666: {
	push	r11	#
	.cfi_def_cfa_offset 16
	.cfi_offset 11, -16
	push	r10	#
	.cfi_def_cfa_offset 24
	.cfi_offset 10, -24
	push	r9	#
	.cfi_def_cfa_offset 32
	.cfi_offset 9, -32
	push	r8	#
	.cfi_def_cfa_offset 40
	.cfi_offset 8, -40
	push	rdi	#
	.cfi_def_cfa_offset 48
	.cfi_offset 5, -48
	push	rax	#
	.cfi_def_cfa_offset 56
	.cfi_offset 0, -56
# handlers.c:1667:     long save_rax = __read_reg("rax");
#APP
# 1667 "handlers.c" 1
	mov r11, rax	# val
	
# 0 "" 2
# handlers.c:1669:     vmcall_4(det_sys_fstat,current_task,save_fd,save_statbuf,save_rax);
#NO_APP
	mov	r8d, DWORD PTR hypercall_info[rip+11232]	# hypercall_info.OsSpecificFields.CurrentTaskOffset, hypercall_info.OsSpecificFields.CurrentTaskOffset
#APP
# 1669 "handlers.c" 1
	mov r8, gs:[r8]	# ret, hypercall_info.OsSpecificFields.CurrentTaskOffset
# 0 "" 2
#NO_APP
	mov	r9d, DWORD PTR 64[rsp]	# __p2, save_fd
	mov	r10, QWORD PTR 72[rsp]	# __p3, save_statbuf
	mov	edi, 80	#,
	call	vmcall	#
# handlers.c:1670: }
	pop	rax	#
	.cfi_def_cfa_offset 48
	pop	rdi	#
	.cfi_def_cfa_offset 40
	pop	r8	#
	.cfi_def_cfa_offset 32
	pop	r9	#
	.cfi_def_cfa_offset 24
	pop	r10	#
	.cfi_def_cfa_offset 16
	pop	r11	#
	.cfi_def_cfa_offset 8
	ret
	.cfi_endproc
.LFE133:
	.size	sys_fstat, .-sys_fstat
	.align 16
	.globl	pre_sys_fstat
	.type	pre_sys_fstat, @function
pre_sys_fstat:
.LFB252:
	.cfi_startproc
	push	rdi	#
	.cfi_def_cfa_offset 16
	.cfi_offset 5, -16
	push	rsi	#
	.cfi_def_cfa_offset 24
	.cfi_offset 4, -24
	push	rax	#
	.cfi_def_cfa_offset 32
	.cfi_offset 0, -32
	mov	rax, QWORD PTR 32[rsp]	# skip_call, skip_call
	mov	QWORD PTR [rax], 0	# *skip_call_8(D),
	mov	rax, QWORD PTR 40[rsp]	# save_fd, save_fd
	mov	DWORD PTR [rax], edi	# *save_fd_9(D), fd
	mov	rax, QWORD PTR 48[rsp]	# save_statbuf, save_statbuf
	mov	QWORD PTR [rax], rsi	# *save_statbuf_10(D), statbuf
	pop	rax	#
	.cfi_def_cfa_offset 24
	pop	rsi	#
	.cfi_def_cfa_offset 16
	pop	rdi	#
	.cfi_def_cfa_offset 8
	ret
	.cfi_endproc
.LFE252:
	.size	pre_sys_fstat, .-pre_sys_fstat
	.align 16
	.globl	sys_stat
	.type	sys_stat, @function
sys_stat:
.LFB135:
	.cfi_startproc
# handlers.c:1684: {
	push	r11	#
	.cfi_def_cfa_offset 16
	.cfi_offset 11, -16
	push	r10	#
	.cfi_def_cfa_offset 24
	.cfi_offset 10, -24
	push	r9	#
	.cfi_def_cfa_offset 32
	.cfi_offset 9, -32
	push	r8	#
	.cfi_def_cfa_offset 40
	.cfi_offset 8, -40
	push	rdi	#
	.cfi_def_cfa_offset 48
	.cfi_offset 5, -48
	push	rax	#
	.cfi_def_cfa_offset 56
	.cfi_offset 0, -56
# handlers.c:1685:     long save_rax = __read_reg("rax");
#APP
# 1685 "handlers.c" 1
	mov r11, rax	# val
	
# 0 "" 2
# handlers.c:1687:     vmcall_4(det_sys_stat,current_task,save_filename,save_statbuf,save_rax);
#NO_APP
	mov	r8d, DWORD PTR hypercall_info[rip+11232]	# hypercall_info.OsSpecificFields.CurrentTaskOffset, hypercall_info.OsSpecificFields.CurrentTaskOffset
#APP
# 1687 "handlers.c" 1
	mov r8, gs:[r8]	# ret, hypercall_info.OsSpecificFields.CurrentTaskOffset
# 0 "" 2
#NO_APP
	mov	r9, QWORD PTR 64[rsp]	# __p2, save_filename
	mov	r10, QWORD PTR 72[rsp]	# __p3, save_statbuf
	mov	edi, 81	#,
	call	vmcall	#
# handlers.c:1688: }
	pop	rax	#
	.cfi_def_cfa_offset 48
	pop	rdi	#
	.cfi_def_cfa_offset 40
	pop	r8	#
	.cfi_def_cfa_offset 32
	pop	r9	#
	.cfi_def_cfa_offset 24
	pop	r10	#
	.cfi_def_cfa_offset 16
	pop	r11	#
	.cfi_def_cfa_offset 8
	ret
	.cfi_endproc
.LFE135:
	.size	sys_stat, .-sys_stat
	.align 16
	.globl	pre_sys_stat
	.type	pre_sys_stat, @function
pre_sys_stat:
.LFB136:
	.cfi_startproc
	push	rdi	#
	.cfi_def_cfa_offset 16
	.cfi_offset 5, -16
	push	rsi	#
	.cfi_def_cfa_offset 24
	.cfi_offset 4, -24
	push	rax	#
	.cfi_def_cfa_offset 32
	.cfi_offset 0, -32
# handlers.c:1694:     *skip_call=0;
	mov	rax, QWORD PTR 32[rsp]	# skip_call, skip_call
	mov	QWORD PTR [rax], 0	# *skip_call_2(D),
# handlers.c:1695:     *save_filename=filename;
	mov	rax, QWORD PTR 40[rsp]	# save_filename, save_filename
	mov	QWORD PTR [rax], rdi	# *save_filename_4(D), filename
# handlers.c:1696:     *save_statbuf=statbuf;
	mov	rax, QWORD PTR 48[rsp]	# save_statbuf, save_statbuf
	mov	QWORD PTR [rax], rsi	# *save_statbuf_7(D), statbuf
# handlers.c:1697: }
	pop	rax	#
	.cfi_def_cfa_offset 24
	pop	rsi	#
	.cfi_def_cfa_offset 16
	pop	rdi	#
	.cfi_def_cfa_offset 8
	ret
	.cfi_endproc
.LFE136:
	.size	pre_sys_stat, .-pre_sys_stat
	.align 16
	.globl	sys_lstat
	.type	sys_lstat, @function
sys_lstat:
.LFB137:
	.cfi_startproc
	push	r11	#
	.cfi_def_cfa_offset 16
	.cfi_offset 11, -16
	push	r10	#
	.cfi_def_cfa_offset 24
	.cfi_offset 10, -24
	push	r9	#
	.cfi_def_cfa_offset 32
	.cfi_offset 9, -32
	push	r8	#
	.cfi_def_cfa_offset 40
	.cfi_offset 8, -40
	push	rdi	#
	.cfi_def_cfa_offset 48
	.cfi_offset 5, -48
	push	rax	#
	.cfi_def_cfa_offset 56
	.cfi_offset 0, -56
# handlers.c:1703:     long save_rax = __read_reg("rax");
#APP
# 1703 "handlers.c" 1
	mov r11, rax	# val
	
# 0 "" 2
# handlers.c:1705:     vmcall_4(det_sys_lstat,current_task,save_filename,save_statbuf,save_rax);
#NO_APP
	mov	r8d, DWORD PTR hypercall_info[rip+11232]	# hypercall_info.OsSpecificFields.CurrentTaskOffset, hypercall_info.OsSpecificFields.CurrentTaskOffset
#APP
# 1705 "handlers.c" 1
	mov r8, gs:[r8]	# ret, hypercall_info.OsSpecificFields.CurrentTaskOffset
# 0 "" 2
#NO_APP
	mov	r9, QWORD PTR 64[rsp]	# __p2, save_filename
	mov	r10, QWORD PTR 72[rsp]	# __p3, save_statbuf
	mov	edi, 82	#,
	call	vmcall	#
# handlers.c:1706: }
	pop	rax	#
	.cfi_def_cfa_offset 48
	pop	rdi	#
	.cfi_def_cfa_offset 40
	pop	r8	#
	.cfi_def_cfa_offset 32
	pop	r9	#
	.cfi_def_cfa_offset 24
	pop	r10	#
	.cfi_def_cfa_offset 16
	pop	r11	#
	.cfi_def_cfa_offset 8
	ret
	.cfi_endproc
.LFE137:
	.size	sys_lstat, .-sys_lstat
	.align 16
	.globl	pre_sys_lstat
	.type	pre_sys_lstat, @function
pre_sys_lstat:
.LFB246:
	.cfi_startproc
	push	rdi	#
	.cfi_def_cfa_offset 16
	.cfi_offset 5, -16
	push	rsi	#
	.cfi_def_cfa_offset 24
	.cfi_offset 4, -24
	push	rax	#
	.cfi_def_cfa_offset 32
	.cfi_offset 0, -32
	mov	rax, QWORD PTR 32[rsp]	# skip_call, skip_call
	mov	QWORD PTR [rax], 0	# *skip_call_8(D),
	mov	rax, QWORD PTR 40[rsp]	# save_filename, save_filename
	mov	QWORD PTR [rax], rdi	# *save_filename_9(D), filename
	mov	rax, QWORD PTR 48[rsp]	# save_statbuf, save_statbuf
	mov	QWORD PTR [rax], rsi	# *save_statbuf_10(D), statbuf
	pop	rax	#
	.cfi_def_cfa_offset 24
	pop	rsi	#
	.cfi_def_cfa_offset 16
	pop	rdi	#
	.cfi_def_cfa_offset 8
	ret
	.cfi_endproc
.LFE246:
	.size	pre_sys_lstat, .-pre_sys_lstat
	.align 16
	.globl	sys_execve
	.type	sys_execve, @function
sys_execve:
.LFB139:
	.cfi_startproc
# handlers.c:1720: {
	push	r12	#
	.cfi_def_cfa_offset 16
	.cfi_offset 12, -16
	push	r11	#
	.cfi_def_cfa_offset 24
	.cfi_offset 11, -24
	push	r10	#
	.cfi_def_cfa_offset 32
	.cfi_offset 10, -32
	push	r9	#
	.cfi_def_cfa_offset 40
	.cfi_offset 9, -40
	push	r8	#
	.cfi_def_cfa_offset 48
	.cfi_offset 8, -48
	push	rdi	#
	.cfi_def_cfa_offset 56
	.cfi_offset 5, -56
	push	rax	#
	.cfi_def_cfa_offset 64
	.cfi_offset 0, -64
# handlers.c:1721:     long save_rax = __read_reg("rax");
#APP
# 1721 "handlers.c" 1
	mov r12, rax	# val
	
# 0 "" 2
# handlers.c:1723:     vmcall_5(det_sys_execve,current_task,save_filename,save_argv,save_envp,save_rax);
#NO_APP
	mov	r8d, DWORD PTR hypercall_info[rip+11232]	# hypercall_info.OsSpecificFields.CurrentTaskOffset, hypercall_info.OsSpecificFields.CurrentTaskOffset
#APP
# 1723 "handlers.c" 1
	mov r8, gs:[r8]	# ret, hypercall_info.OsSpecificFields.CurrentTaskOffset
# 0 "" 2
#NO_APP
	mov	r9, QWORD PTR 72[rsp]	# __p2, save_filename
	mov	r10, QWORD PTR 80[rsp]	# __p3, save_argv
	mov	r11, QWORD PTR 88[rsp]	# __p4, save_envp
	mov	edi, 83	#,
	call	vmcall	#
# handlers.c:1724: }
	pop	rax	#
	.cfi_def_cfa_offset 56
	pop	rdi	#
	.cfi_def_cfa_offset 48
	pop	r8	#
	.cfi_def_cfa_offset 40
	pop	r9	#
	.cfi_def_cfa_offset 32
	pop	r10	#
	.cfi_def_cfa_offset 24
	pop	r11	#
	.cfi_def_cfa_offset 16
	pop	r12	#
	.cfi_def_cfa_offset 8
	ret
	.cfi_endproc
.LFE139:
	.size	sys_execve, .-sys_execve
	.align 16
	.globl	pre_sys_execve
	.type	pre_sys_execve, @function
pre_sys_execve:
.LFB140:
	.cfi_startproc
	push	rdi	#
	.cfi_def_cfa_offset 16
	.cfi_offset 5, -16
	push	rsi	#
	.cfi_def_cfa_offset 24
	.cfi_offset 4, -24
	push	rdx	#
	.cfi_def_cfa_offset 32
	.cfi_offset 1, -32
	push	rax	#
	.cfi_def_cfa_offset 40
	.cfi_offset 0, -40
# handlers.c:1731:     *skip_call=0;
	mov	rax, QWORD PTR 40[rsp]	# skip_call, skip_call
	mov	QWORD PTR [rax], 0	# *skip_call_2(D),
# handlers.c:1732:     *save_filename=filename;
	mov	rax, QWORD PTR 48[rsp]	# save_filename, save_filename
	mov	QWORD PTR [rax], rdi	# *save_filename_4(D), filename
# handlers.c:1733:     *save_argv=argv;
	mov	rax, QWORD PTR 56[rsp]	# save_argv, save_argv
	mov	QWORD PTR [rax], rsi	# *save_argv_7(D), argv
# handlers.c:1734:     *save_envp=envp;
	mov	rax, QWORD PTR 64[rsp]	# save_envp, save_envp
	mov	QWORD PTR [rax], rdx	# *save_envp_10(D), envp
# handlers.c:1735: }
	pop	rax	#
	.cfi_def_cfa_offset 32
	pop	rdx	#
	.cfi_def_cfa_offset 24
	pop	rsi	#
	.cfi_def_cfa_offset 16
	pop	rdi	#
	.cfi_def_cfa_offset 8
	ret
	.cfi_endproc
.LFE140:
	.size	pre_sys_execve, .-pre_sys_execve
	.align 16
	.globl	sys_execveat
	.type	sys_execveat, @function
sys_execveat:
.LFB141:
	.cfi_startproc
	push	r14	#
	.cfi_def_cfa_offset 16
	.cfi_offset 14, -16
	push	r13	#
	.cfi_def_cfa_offset 24
	.cfi_offset 13, -24
	push	r12	#
	.cfi_def_cfa_offset 32
	.cfi_offset 12, -32
	push	r11	#
	.cfi_def_cfa_offset 40
	.cfi_offset 11, -40
	push	r10	#
	.cfi_def_cfa_offset 48
	.cfi_offset 10, -48
	push	r9	#
	.cfi_def_cfa_offset 56
	.cfi_offset 9, -56
	push	r8	#
	.cfi_def_cfa_offset 64
	.cfi_offset 8, -64
	push	rdi	#
	.cfi_def_cfa_offset 72
	.cfi_offset 5, -72
	push	rax	#
	.cfi_def_cfa_offset 80
	.cfi_offset 0, -80
# handlers.c:1742:     long save_rax = __read_reg("rax");
#APP
# 1742 "handlers.c" 1
	mov r14, rax	# val
	
# 0 "" 2
# handlers.c:1744:     vmcall_7(det_sys_execveat,current_task,save_dfd,save_filename,save_argv,save_envp,save_flags,save_rax);
#NO_APP
	mov	r8d, DWORD PTR hypercall_info[rip+11232]	# hypercall_info.OsSpecificFields.CurrentTaskOffset, hypercall_info.OsSpecificFields.CurrentTaskOffset
#APP
# 1744 "handlers.c" 1
	mov r8, gs:[r8]	# ret, hypercall_info.OsSpecificFields.CurrentTaskOffset
# 0 "" 2
#NO_APP
	movsx	r9, DWORD PTR 88[rsp]	# __p2, save_dfd
	mov	r10, QWORD PTR 96[rsp]	# __p3, save_filename
	mov	r11, QWORD PTR 104[rsp]	# __p4, save_argv
	mov	r12, QWORD PTR 112[rsp]	# __p5, save_envp
	movsx	r13, DWORD PTR 120[rsp]	# __p6, save_flags
	mov	edi, 84	#,
	call	vmcall	#
# handlers.c:1745: }
	pop	rax	#
	.cfi_def_cfa_offset 72
	pop	rdi	#
	.cfi_def_cfa_offset 64
	pop	r8	#
	.cfi_def_cfa_offset 56
	pop	r9	#
	.cfi_def_cfa_offset 48
	pop	r10	#
	.cfi_def_cfa_offset 40
	pop	r11	#
	.cfi_def_cfa_offset 32
	pop	r12	#
	.cfi_def_cfa_offset 24
	pop	r13	#
	.cfi_def_cfa_offset 16
	pop	r14	#
	.cfi_def_cfa_offset 8
	ret
	.cfi_endproc
.LFE141:
	.size	sys_execveat, .-sys_execveat
	.align 16
	.globl	pre_sys_execveat
	.type	pre_sys_execveat, @function
pre_sys_execveat:
.LFB142:
	.cfi_startproc
	push	r8	#
	.cfi_def_cfa_offset 16
	.cfi_offset 8, -16
	push	rdi	#
	.cfi_def_cfa_offset 24
	.cfi_offset 5, -24
	push	rsi	#
	.cfi_def_cfa_offset 32
	.cfi_offset 4, -32
	push	rcx	#
	.cfi_def_cfa_offset 40
	.cfi_offset 2, -40
	push	rdx	#
	.cfi_def_cfa_offset 48
	.cfi_offset 1, -48
	push	rax	#
	.cfi_def_cfa_offset 56
	.cfi_offset 0, -56
# handlers.c:1752:     *skip_call=0;
	mov	rax, QWORD PTR 56[rsp]	# skip_call, skip_call
	mov	QWORD PTR [rax], 0	# *skip_call_2(D),
# handlers.c:1753:     *save_dfd=dfd;
	mov	rax, QWORD PTR 64[rsp]	# save_dfd, save_dfd
	mov	DWORD PTR [rax], edi	# *save_dfd_4(D), dfd
# handlers.c:1754:     *save_filename=filename;
	mov	rax, QWORD PTR 72[rsp]	# save_filename, save_filename
	mov	QWORD PTR [rax], rsi	# *save_filename_7(D), filename
# handlers.c:1755:     *save_argv=argv;
	mov	rax, QWORD PTR 80[rsp]	# save_argv, save_argv
	mov	QWORD PTR [rax], rdx	# *save_argv_10(D), argv
# handlers.c:1756:     *save_envp=envp;
	mov	rax, QWORD PTR 88[rsp]	# save_envp, save_envp
	mov	QWORD PTR [rax], rcx	# *save_envp_13(D), envp
# handlers.c:1757:     *save_flags=flags;
	mov	rax, QWORD PTR 96[rsp]	# save_flags, save_flags
	mov	DWORD PTR [rax], r8d	# *save_flags_16(D), flags
# handlers.c:1758: }
	pop	rax	#
	.cfi_def_cfa_offset 48
	pop	rdx	#
	.cfi_def_cfa_offset 40
	pop	rcx	#
	.cfi_def_cfa_offset 32
	pop	rsi	#
	.cfi_def_cfa_offset 24
	pop	rdi	#
	.cfi_def_cfa_offset 16
	pop	r8	#
	.cfi_def_cfa_offset 8
	ret
	.cfi_endproc
.LFE142:
	.size	pre_sys_execveat, .-pre_sys_execveat
	.align 16
	.globl	sys_newfstatat
	.type	sys_newfstatat, @function
sys_newfstatat:
.LFB143:
	.cfi_startproc
	push	r13	#
	.cfi_def_cfa_offset 16
	.cfi_offset 13, -16
	push	r12	#
	.cfi_def_cfa_offset 24
	.cfi_offset 12, -24
	push	r11	#
	.cfi_def_cfa_offset 32
	.cfi_offset 11, -32
	push	r10	#
	.cfi_def_cfa_offset 40
	.cfi_offset 10, -40
	push	r9	#
	.cfi_def_cfa_offset 48
	.cfi_offset 9, -48
	push	r8	#
	.cfi_def_cfa_offset 56
	.cfi_offset 8, -56
	push	rdi	#
	.cfi_def_cfa_offset 64
	.cfi_offset 5, -64
	push	rax	#
	.cfi_def_cfa_offset 72
	.cfi_offset 0, -72
# handlers.c:1765:     long save_rax = __read_reg("rax");
#APP
# 1765 "handlers.c" 1
	mov r13, rax	# val
	
# 0 "" 2
# handlers.c:1767:     vmcall_6(det_sys_newfstatat,current_task,save_dfd,save_filename,save_statbuf,save_flag,save_rax);
#NO_APP
	mov	r8d, DWORD PTR hypercall_info[rip+11232]	# hypercall_info.OsSpecificFields.CurrentTaskOffset, hypercall_info.OsSpecificFields.CurrentTaskOffset
#APP
# 1767 "handlers.c" 1
	mov r8, gs:[r8]	# ret, hypercall_info.OsSpecificFields.CurrentTaskOffset
# 0 "" 2
#NO_APP
	movsx	r9, DWORD PTR 80[rsp]	# __p2, save_dfd
	mov	r10, QWORD PTR 88[rsp]	# __p3, save_filename
	mov	r11, QWORD PTR 96[rsp]	# __p4, save_statbuf
	movsx	r12, DWORD PTR 104[rsp]	# __p5, save_flag
	mov	edi, 85	#,
	call	vmcall	#
# handlers.c:1768: }
	pop	rax	#
	.cfi_def_cfa_offset 64
	pop	rdi	#
	.cfi_def_cfa_offset 56
	pop	r8	#
	.cfi_def_cfa_offset 48
	pop	r9	#
	.cfi_def_cfa_offset 40
	pop	r10	#
	.cfi_def_cfa_offset 32
	pop	r11	#
	.cfi_def_cfa_offset 24
	pop	r12	#
	.cfi_def_cfa_offset 16
	pop	r13	#
	.cfi_def_cfa_offset 8
	ret
	.cfi_endproc
.LFE143:
	.size	sys_newfstatat, .-sys_newfstatat
	.align 16
	.globl	pre_sys_newfstatat
	.type	pre_sys_newfstatat, @function
pre_sys_newfstatat:
.LFB144:
	.cfi_startproc
	push	rdi	#
	.cfi_def_cfa_offset 16
	.cfi_offset 5, -16
	push	rsi	#
	.cfi_def_cfa_offset 24
	.cfi_offset 4, -24
	push	rcx	#
	.cfi_def_cfa_offset 32
	.cfi_offset 2, -32
	push	rdx	#
	.cfi_def_cfa_offset 40
	.cfi_offset 1, -40
	push	rax	#
	.cfi_def_cfa_offset 48
	.cfi_offset 0, -48
# handlers.c:1775:     *skip_call=0;
	mov	rax, QWORD PTR 48[rsp]	# skip_call, skip_call
	mov	QWORD PTR [rax], 0	# *skip_call_2(D),
# handlers.c:1776:     *save_dfd=dfd;
	mov	rax, QWORD PTR 56[rsp]	# save_dfd, save_dfd
	mov	DWORD PTR [rax], edi	# *save_dfd_4(D), dfd
# handlers.c:1777:     *save_filename=filename;
	mov	rax, QWORD PTR 64[rsp]	# save_filename, save_filename
	mov	QWORD PTR [rax], rsi	# *save_filename_7(D), filename
# handlers.c:1778:     *save_statbuf=statbuf;
	mov	rax, QWORD PTR 72[rsp]	# save_statbuf, save_statbuf
	mov	QWORD PTR [rax], rdx	# *save_statbuf_10(D), statbuf
# handlers.c:1779:     *save_flag=flag;
	mov	rax, QWORD PTR 80[rsp]	# save_flag, save_flag
	mov	DWORD PTR [rax], ecx	# *save_flag_13(D), flag
# handlers.c:1780: }
	pop	rax	#
	.cfi_def_cfa_offset 40
	pop	rdx	#
	.cfi_def_cfa_offset 32
	pop	rcx	#
	.cfi_def_cfa_offset 24
	pop	rsi	#
	.cfi_def_cfa_offset 16
	pop	rdi	#
	.cfi_def_cfa_offset 8
	ret
	.cfi_endproc
.LFE144:
	.size	pre_sys_newfstatat, .-pre_sys_newfstatat
	.align 16
	.globl	sys_pwrite64
	.type	sys_pwrite64, @function
sys_pwrite64:
.LFB145:
	.cfi_startproc
	push	r13	#
	.cfi_def_cfa_offset 16
	.cfi_offset 13, -16
	push	r12	#
	.cfi_def_cfa_offset 24
	.cfi_offset 12, -24
	push	r11	#
	.cfi_def_cfa_offset 32
	.cfi_offset 11, -32
	push	r10	#
	.cfi_def_cfa_offset 40
	.cfi_offset 10, -40
	push	r9	#
	.cfi_def_cfa_offset 48
	.cfi_offset 9, -48
	push	r8	#
	.cfi_def_cfa_offset 56
	.cfi_offset 8, -56
	push	rdi	#
	.cfi_def_cfa_offset 64
	.cfi_offset 5, -64
	push	rax	#
	.cfi_def_cfa_offset 72
	.cfi_offset 0, -72
# handlers.c:1787:     long save_rax = __read_reg("rax");
#APP
# 1787 "handlers.c" 1
	mov r13, rax	# val
	
# 0 "" 2
# handlers.c:1789:     vmcall_6(det_sys_pwrite64,current_task,save_fd,save_buf,save_count,save_pos,save_rax);
#NO_APP
	mov	r8d, DWORD PTR hypercall_info[rip+11232]	# hypercall_info.OsSpecificFields.CurrentTaskOffset, hypercall_info.OsSpecificFields.CurrentTaskOffset
#APP
# 1789 "handlers.c" 1
	mov r8, gs:[r8]	# ret, hypercall_info.OsSpecificFields.CurrentTaskOffset
# 0 "" 2
#NO_APP
	mov	r9d, DWORD PTR 80[rsp]	# __p2, save_fd
	mov	r10, QWORD PTR 88[rsp]	# __p3, save_buf
	mov	r11d, DWORD PTR 96[rsp]	# __p4, save_count
	mov	r12, QWORD PTR 104[rsp]	# __p5, save_pos
	mov	edi, 86	#,
	call	vmcall	#
# handlers.c:1790: }
	pop	rax	#
	.cfi_def_cfa_offset 64
	pop	rdi	#
	.cfi_def_cfa_offset 56
	pop	r8	#
	.cfi_def_cfa_offset 48
	pop	r9	#
	.cfi_def_cfa_offset 40
	pop	r10	#
	.cfi_def_cfa_offset 32
	pop	r11	#
	.cfi_def_cfa_offset 24
	pop	r12	#
	.cfi_def_cfa_offset 16
	pop	r13	#
	.cfi_def_cfa_offset 8
	ret
	.cfi_endproc
.LFE145:
	.size	sys_pwrite64, .-sys_pwrite64
	.align 16
	.globl	pre_sys_pwrite64
	.type	pre_sys_pwrite64, @function
pre_sys_pwrite64:
.LFB146:
	.cfi_startproc
	push	rdi	#
	.cfi_def_cfa_offset 16
	.cfi_offset 5, -16
	push	rsi	#
	.cfi_def_cfa_offset 24
	.cfi_offset 4, -24
	push	rcx	#
	.cfi_def_cfa_offset 32
	.cfi_offset 2, -32
	push	rdx	#
	.cfi_def_cfa_offset 40
	.cfi_offset 1, -40
	push	rax	#
	.cfi_def_cfa_offset 48
	.cfi_offset 0, -48
# handlers.c:1797:     *skip_call=0;
	mov	rax, QWORD PTR 48[rsp]	# skip_call, skip_call
	mov	QWORD PTR [rax], 0	# *skip_call_2(D),
# handlers.c:1798:     *save_fd=fd;
	mov	rax, QWORD PTR 56[rsp]	# save_fd, save_fd
	mov	DWORD PTR [rax], edi	# *save_fd_4(D), fd
# handlers.c:1799:     *save_buf=buf;
	mov	rax, QWORD PTR 64[rsp]	# save_buf, save_buf
	mov	QWORD PTR [rax], rsi	# *save_buf_7(D), buf
# handlers.c:1800:     *save_count=count;
	mov	rax, QWORD PTR 72[rsp]	# save_count, save_count
	mov	DWORD PTR [rax], edx	# *save_count_10(D), count
# handlers.c:1801:     *save_pos=pos;
	mov	rax, QWORD PTR 80[rsp]	# save_pos, save_pos
	mov	QWORD PTR [rax], rcx	# *save_pos_13(D), pos
# handlers.c:1802: }
	pop	rax	#
	.cfi_def_cfa_offset 40
	pop	rdx	#
	.cfi_def_cfa_offset 32
	pop	rcx	#
	.cfi_def_cfa_offset 24
	pop	rsi	#
	.cfi_def_cfa_offset 16
	pop	rdi	#
	.cfi_def_cfa_offset 8
	ret
	.cfi_endproc
.LFE146:
	.size	pre_sys_pwrite64, .-pre_sys_pwrite64
	.align 16
	.globl	sys_pread64
	.type	sys_pread64, @function
sys_pread64:
.LFB147:
	.cfi_startproc
	push	r13	#
	.cfi_def_cfa_offset 16
	.cfi_offset 13, -16
	push	r12	#
	.cfi_def_cfa_offset 24
	.cfi_offset 12, -24
	push	r11	#
	.cfi_def_cfa_offset 32
	.cfi_offset 11, -32
	push	r10	#
	.cfi_def_cfa_offset 40
	.cfi_offset 10, -40
	push	r9	#
	.cfi_def_cfa_offset 48
	.cfi_offset 9, -48
	push	r8	#
	.cfi_def_cfa_offset 56
	.cfi_offset 8, -56
	push	rdi	#
	.cfi_def_cfa_offset 64
	.cfi_offset 5, -64
	push	rax	#
	.cfi_def_cfa_offset 72
	.cfi_offset 0, -72
# handlers.c:1808:     long save_rax = __read_reg("rax");
#APP
# 1808 "handlers.c" 1
	mov r13, rax	# val
	
# 0 "" 2
# handlers.c:1810:     vmcall_6(det_sys_pread64,current_task,save_fd,save_buf,save_count,save_pos,save_rax);
#NO_APP
	mov	r8d, DWORD PTR hypercall_info[rip+11232]	# hypercall_info.OsSpecificFields.CurrentTaskOffset, hypercall_info.OsSpecificFields.CurrentTaskOffset
#APP
# 1810 "handlers.c" 1
	mov r8, gs:[r8]	# ret, hypercall_info.OsSpecificFields.CurrentTaskOffset
# 0 "" 2
#NO_APP
	mov	r9d, DWORD PTR 80[rsp]	# __p2, save_fd
	mov	r10, QWORD PTR 88[rsp]	# __p3, save_buf
	mov	r11d, DWORD PTR 96[rsp]	# __p4, save_count
	mov	r12, QWORD PTR 104[rsp]	# __p5, save_pos
	mov	edi, 87	#,
	call	vmcall	#
# handlers.c:1811: }
	pop	rax	#
	.cfi_def_cfa_offset 64
	pop	rdi	#
	.cfi_def_cfa_offset 56
	pop	r8	#
	.cfi_def_cfa_offset 48
	pop	r9	#
	.cfi_def_cfa_offset 40
	pop	r10	#
	.cfi_def_cfa_offset 32
	pop	r11	#
	.cfi_def_cfa_offset 24
	pop	r12	#
	.cfi_def_cfa_offset 16
	pop	r13	#
	.cfi_def_cfa_offset 8
	ret
	.cfi_endproc
.LFE147:
	.size	sys_pread64, .-sys_pread64
	.align 16
	.globl	pre_sys_pread64
	.type	pre_sys_pread64, @function
pre_sys_pread64:
.LFB266:
	.cfi_startproc
	push	rdi	#
	.cfi_def_cfa_offset 16
	.cfi_offset 5, -16
	push	rsi	#
	.cfi_def_cfa_offset 24
	.cfi_offset 4, -24
	push	rcx	#
	.cfi_def_cfa_offset 32
	.cfi_offset 2, -32
	push	rdx	#
	.cfi_def_cfa_offset 40
	.cfi_offset 1, -40
	push	rax	#
	.cfi_def_cfa_offset 48
	.cfi_offset 0, -48
	mov	rax, QWORD PTR 48[rsp]	# skip_call, skip_call
	mov	QWORD PTR [rax], 0	# *skip_call_8(D),
	mov	rax, QWORD PTR 56[rsp]	# save_fd, save_fd
	mov	DWORD PTR [rax], edi	# *save_fd_9(D), fd
	mov	rax, QWORD PTR 64[rsp]	# save_buf, save_buf
	mov	QWORD PTR [rax], rsi	# *save_buf_10(D), buf
	mov	rax, QWORD PTR 72[rsp]	# save_count, save_count
	mov	DWORD PTR [rax], edx	# *save_count_11(D), count
	mov	rax, QWORD PTR 80[rsp]	# save_pos, save_pos
	mov	QWORD PTR [rax], rcx	# *save_pos_12(D), pos
	pop	rax	#
	.cfi_def_cfa_offset 40
	pop	rdx	#
	.cfi_def_cfa_offset 32
	pop	rcx	#
	.cfi_def_cfa_offset 24
	pop	rsi	#
	.cfi_def_cfa_offset 16
	pop	rdi	#
	.cfi_def_cfa_offset 8
	ret
	.cfi_endproc
.LFE266:
	.size	pre_sys_pread64, .-pre_sys_pread64
	.align 16
	.globl	sys_mmap_pgoff
	.type	sys_mmap_pgoff, @function
sys_mmap_pgoff:
.LFB149:
	.cfi_startproc
# handlers.c:1828: {
	push	r15	#
	.cfi_def_cfa_offset 16
	.cfi_offset 15, -16
	push	r14	#
	.cfi_def_cfa_offset 24
	.cfi_offset 14, -24
	push	r13	#
	.cfi_def_cfa_offset 32
	.cfi_offset 13, -32
	push	r12	#
	.cfi_def_cfa_offset 40
	.cfi_offset 12, -40
	push	r11	#
	.cfi_def_cfa_offset 48
	.cfi_offset 11, -48
	push	r10	#
	.cfi_def_cfa_offset 56
	.cfi_offset 10, -56
	push	r9	#
	.cfi_def_cfa_offset 64
	.cfi_offset 9, -64
	push	r8	#
	.cfi_def_cfa_offset 72
	.cfi_offset 8, -72
	push	rdi	#
	.cfi_def_cfa_offset 80
	.cfi_offset 5, -80
	push	rax	#
	.cfi_def_cfa_offset 88
	.cfi_offset 0, -88
# handlers.c:1829:     long save_rax = __read_reg("rax");
#APP
# 1829 "handlers.c" 1
	mov r15, rax	# val
	
# 0 "" 2
# handlers.c:1831:     vmcall_8(det_sys_mmap_pgoff,current_task,save_addr,save_len,save_prot,save_flags,save_fd,save_pgoff,save_rax);
#NO_APP
	mov	r8d, DWORD PTR hypercall_info[rip+11232]	# hypercall_info.OsSpecificFields.CurrentTaskOffset, hypercall_info.OsSpecificFields.CurrentTaskOffset
#APP
# 1831 "handlers.c" 1
	mov r8, gs:[r8]	# ret, hypercall_info.OsSpecificFields.CurrentTaskOffset
# 0 "" 2
#NO_APP
	mov	r9, QWORD PTR 96[rsp]	# __p2, save_addr
	mov	r10, QWORD PTR 104[rsp]	# __p3, save_len
	mov	r11, QWORD PTR 112[rsp]	# __p4, save_prot
	mov	r12, QWORD PTR 120[rsp]	# __p5, save_flags
	mov	r13, QWORD PTR 128[rsp]	# __p6, save_fd
	mov	r14, QWORD PTR 136[rsp]	# __p7, save_pgoff
	mov	edi, 88	#,
	call	vmcall	#
# handlers.c:1832: }
	pop	rax	#
	.cfi_def_cfa_offset 80
	pop	rdi	#
	.cfi_def_cfa_offset 72
	pop	r8	#
	.cfi_def_cfa_offset 64
	pop	r9	#
	.cfi_def_cfa_offset 56
	pop	r10	#
	.cfi_def_cfa_offset 48
	pop	r11	#
	.cfi_def_cfa_offset 40
	pop	r12	#
	.cfi_def_cfa_offset 32
	pop	r13	#
	.cfi_def_cfa_offset 24
	pop	r14	#
	.cfi_def_cfa_offset 16
	pop	r15	#
	.cfi_def_cfa_offset 8
	ret
	.cfi_endproc
.LFE149:
	.size	sys_mmap_pgoff, .-sys_mmap_pgoff
	.align 16
	.globl	pre_sys_mmap_pgoff
	.type	pre_sys_mmap_pgoff, @function
pre_sys_mmap_pgoff:
.LFB150:
	.cfi_startproc
	push	r9	#
	.cfi_def_cfa_offset 16
	.cfi_offset 9, -16
	push	r8	#
	.cfi_def_cfa_offset 24
	.cfi_offset 8, -24
	push	rdi	#
	.cfi_def_cfa_offset 32
	.cfi_offset 5, -32
	push	rsi	#
	.cfi_def_cfa_offset 40
	.cfi_offset 4, -40
	push	rcx	#
	.cfi_def_cfa_offset 48
	.cfi_offset 2, -48
	push	rdx	#
	.cfi_def_cfa_offset 56
	.cfi_offset 1, -56
	push	rax	#
	.cfi_def_cfa_offset 64
	.cfi_offset 0, -64
# handlers.c:1839:     *skip_call=0;
	mov	rax, QWORD PTR 64[rsp]	# skip_call, skip_call
	mov	QWORD PTR [rax], 0	# *skip_call_2(D),
# handlers.c:1840:     *save_addr=addr;
	mov	rax, QWORD PTR 72[rsp]	# save_addr, save_addr
	mov	QWORD PTR [rax], rdi	# *save_addr_4(D), addr
# handlers.c:1841:     *save_len=len;
	mov	rax, QWORD PTR 80[rsp]	# save_len, save_len
	mov	QWORD PTR [rax], rsi	# *save_len_7(D), len
# handlers.c:1842:     *save_prot=prot;
	mov	rax, QWORD PTR 88[rsp]	# save_prot, save_prot
	mov	QWORD PTR [rax], rdx	# *save_prot_10(D), prot
# handlers.c:1843:     *save_flags=flags;
	mov	rax, QWORD PTR 96[rsp]	# save_flags, save_flags
	mov	QWORD PTR [rax], rcx	# *save_flags_13(D), flags
# handlers.c:1844:     *save_fd=fd;
	mov	rax, QWORD PTR 104[rsp]	# save_fd, save_fd
	mov	QWORD PTR [rax], r8	# *save_fd_16(D), fd
# handlers.c:1845:     *save_pgoff=pgoff;
	mov	rax, QWORD PTR 112[rsp]	# save_pgoff, save_pgoff
	mov	QWORD PTR [rax], r9	# *save_pgoff_19(D), pgoff
# handlers.c:1846: }
	pop	rax	#
	.cfi_def_cfa_offset 56
	pop	rdx	#
	.cfi_def_cfa_offset 48
	pop	rcx	#
	.cfi_def_cfa_offset 40
	pop	rsi	#
	.cfi_def_cfa_offset 32
	pop	rdi	#
	.cfi_def_cfa_offset 24
	pop	r8	#
	.cfi_def_cfa_offset 16
	pop	r9	#
	.cfi_def_cfa_offset 8
	ret
	.cfi_endproc
.LFE150:
	.size	pre_sys_mmap_pgoff, .-pre_sys_mmap_pgoff
	.align 16
	.globl	sys_prctl
	.type	sys_prctl, @function
sys_prctl:
.LFB151:
	.cfi_startproc
	push	r14	#
	.cfi_def_cfa_offset 16
	.cfi_offset 14, -16
	push	r13	#
	.cfi_def_cfa_offset 24
	.cfi_offset 13, -24
	push	r12	#
	.cfi_def_cfa_offset 32
	.cfi_offset 12, -32
	push	r11	#
	.cfi_def_cfa_offset 40
	.cfi_offset 11, -40
	push	r10	#
	.cfi_def_cfa_offset 48
	.cfi_offset 10, -48
	push	r9	#
	.cfi_def_cfa_offset 56
	.cfi_offset 9, -56
	push	r8	#
	.cfi_def_cfa_offset 64
	.cfi_offset 8, -64
	push	rdi	#
	.cfi_def_cfa_offset 72
	.cfi_offset 5, -72
	push	rax	#
	.cfi_def_cfa_offset 80
	.cfi_offset 0, -80
# handlers.c:1854:     long save_rax = __read_reg("rax");
#APP
# 1854 "handlers.c" 1
	mov r14, rax	# val
	
# 0 "" 2
# handlers.c:1856:     vmcall_7(det_sys_prctl,current_task,save_option,save_arg2,save_arg3,save_arg4,save_arg5,save_rax);
#NO_APP
	mov	r8d, DWORD PTR hypercall_info[rip+11232]	# hypercall_info.OsSpecificFields.CurrentTaskOffset, hypercall_info.OsSpecificFields.CurrentTaskOffset
#APP
# 1856 "handlers.c" 1
	mov r8, gs:[r8]	# ret, hypercall_info.OsSpecificFields.CurrentTaskOffset
# 0 "" 2
#NO_APP
	movsx	r9, DWORD PTR 88[rsp]	# __p2, save_option
	mov	r10, QWORD PTR 96[rsp]	# __p3, save_arg2
	mov	r11, QWORD PTR 104[rsp]	# __p4, save_arg3
	mov	r12, QWORD PTR 112[rsp]	# __p5, save_arg4
	mov	r13, QWORD PTR 120[rsp]	# __p6, save_arg5
	mov	edi, 89	#,
	call	vmcall	#
# handlers.c:1857: }
	pop	rax	#
	.cfi_def_cfa_offset 72
	pop	rdi	#
	.cfi_def_cfa_offset 64
	pop	r8	#
	.cfi_def_cfa_offset 56
	pop	r9	#
	.cfi_def_cfa_offset 48
	pop	r10	#
	.cfi_def_cfa_offset 40
	pop	r11	#
	.cfi_def_cfa_offset 32
	pop	r12	#
	.cfi_def_cfa_offset 24
	pop	r13	#
	.cfi_def_cfa_offset 16
	pop	r14	#
	.cfi_def_cfa_offset 8
	ret
	.cfi_endproc
.LFE151:
	.size	sys_prctl, .-sys_prctl
	.align 16
	.globl	pre_sys_prctl
	.type	pre_sys_prctl, @function
pre_sys_prctl:
.LFB152:
	.cfi_startproc
	push	r8	#
	.cfi_def_cfa_offset 16
	.cfi_offset 8, -16
	push	rdi	#
	.cfi_def_cfa_offset 24
	.cfi_offset 5, -24
	push	rsi	#
	.cfi_def_cfa_offset 32
	.cfi_offset 4, -32
	push	rcx	#
	.cfi_def_cfa_offset 40
	.cfi_offset 2, -40
	push	rdx	#
	.cfi_def_cfa_offset 48
	.cfi_offset 1, -48
	push	rax	#
	.cfi_def_cfa_offset 56
	.cfi_offset 0, -56
# handlers.c:1864:     *skip_call=0;
	mov	rax, QWORD PTR 56[rsp]	# skip_call, skip_call
	mov	QWORD PTR [rax], 0	# *skip_call_2(D),
# handlers.c:1865:     *save_option=option;
	mov	rax, QWORD PTR 64[rsp]	# save_option, save_option
	mov	DWORD PTR [rax], edi	# *save_option_4(D), option
# handlers.c:1866:     *save_arg2=arg2;
	mov	rax, QWORD PTR 72[rsp]	# save_arg2, save_arg2
	mov	QWORD PTR [rax], rsi	# *save_arg2_7(D), arg2
# handlers.c:1867:     *save_arg3=arg3;
	mov	rax, QWORD PTR 80[rsp]	# save_arg3, save_arg3
	mov	QWORD PTR [rax], rdx	# *save_arg3_10(D), arg3
# handlers.c:1868:     *save_arg4=arg4;
	mov	rax, QWORD PTR 88[rsp]	# save_arg4, save_arg4
	mov	QWORD PTR [rax], rcx	# *save_arg4_13(D), arg4
# handlers.c:1869:     *save_arg5=arg5;
	mov	rax, QWORD PTR 96[rsp]	# save_arg5, save_arg5
	mov	QWORD PTR [rax], r8	# *save_arg5_16(D), arg5
# handlers.c:1870: }
	pop	rax	#
	.cfi_def_cfa_offset 48
	pop	rdx	#
	.cfi_def_cfa_offset 40
	pop	rcx	#
	.cfi_def_cfa_offset 32
	pop	rsi	#
	.cfi_def_cfa_offset 24
	pop	rdi	#
	.cfi_def_cfa_offset 16
	pop	r8	#
	.cfi_def_cfa_offset 8
	ret
	.cfi_endproc
.LFE152:
	.size	pre_sys_prctl, .-pre_sys_prctl
	.align 16
	.globl	do_sigaction
	.type	do_sigaction, @function
do_sigaction:
.LFB153:
	.cfi_startproc
	push	r12	#
	.cfi_def_cfa_offset 16
	.cfi_offset 12, -16
	push	r11	#
	.cfi_def_cfa_offset 24
	.cfi_offset 11, -24
	push	r10	#
	.cfi_def_cfa_offset 32
	.cfi_offset 10, -32
	push	r9	#
	.cfi_def_cfa_offset 40
	.cfi_offset 9, -40
	push	r8	#
	.cfi_def_cfa_offset 48
	.cfi_offset 8, -48
	push	rdi	#
	.cfi_def_cfa_offset 56
	.cfi_offset 5, -56
	push	rax	#
	.cfi_def_cfa_offset 64
	.cfi_offset 0, -64
# handlers.c:1876:     long save_rax = __read_reg("rax");
#APP
# 1876 "handlers.c" 1
	mov r12, rax	# val
	
# 0 "" 2
# handlers.c:1878:     vmcall_5(det_do_sigaction,current_task,save_a,save_b,save_c,save_rax);
#NO_APP
	mov	r8d, DWORD PTR hypercall_info[rip+11232]	# hypercall_info.OsSpecificFields.CurrentTaskOffset, hypercall_info.OsSpecificFields.CurrentTaskOffset
#APP
# 1878 "handlers.c" 1
	mov r8, gs:[r8]	# ret, hypercall_info.OsSpecificFields.CurrentTaskOffset
# 0 "" 2
#NO_APP
	movsx	r9, DWORD PTR 72[rsp]	# __p2, save_a
	mov	r10, QWORD PTR 80[rsp]	# __p3, save_b
	mov	r11, QWORD PTR 88[rsp]	# __p4, save_c
	mov	edi, 90	#,
	call	vmcall	#
# handlers.c:1879: }
	pop	rax	#
	.cfi_def_cfa_offset 56
	pop	rdi	#
	.cfi_def_cfa_offset 48
	pop	r8	#
	.cfi_def_cfa_offset 40
	pop	r9	#
	.cfi_def_cfa_offset 32
	pop	r10	#
	.cfi_def_cfa_offset 24
	pop	r11	#
	.cfi_def_cfa_offset 16
	pop	r12	#
	.cfi_def_cfa_offset 8
	ret
	.cfi_endproc
.LFE153:
	.size	do_sigaction, .-do_sigaction
	.align 16
	.globl	pre_do_sigaction
	.type	pre_do_sigaction, @function
pre_do_sigaction:
.LFB154:
	.cfi_startproc
	push	rdi	#
	.cfi_def_cfa_offset 16
	.cfi_offset 5, -16
	push	rsi	#
	.cfi_def_cfa_offset 24
	.cfi_offset 4, -24
	push	rdx	#
	.cfi_def_cfa_offset 32
	.cfi_offset 1, -32
	push	rax	#
	.cfi_def_cfa_offset 40
	.cfi_offset 0, -40
# handlers.c:1885:     *skip_call=0;
	mov	rax, QWORD PTR 40[rsp]	# skip_call, skip_call
	mov	QWORD PTR [rax], 0	# *skip_call_2(D),
# handlers.c:1886:     *save_a=a;
	mov	rax, QWORD PTR 48[rsp]	# save_a, save_a
	mov	DWORD PTR [rax], edi	# *save_a_4(D), a
# handlers.c:1887:     *save_b=b;
	mov	rax, QWORD PTR 56[rsp]	# save_b, save_b
	mov	QWORD PTR [rax], rsi	# *save_b_7(D), b
# handlers.c:1888:     *save_c=c;
	mov	rax, QWORD PTR 64[rsp]	# save_c, save_c
	mov	QWORD PTR [rax], rdx	# *save_c_10(D), c
# handlers.c:1889: }
	pop	rax	#
	.cfi_def_cfa_offset 32
	pop	rdx	#
	.cfi_def_cfa_offset 24
	pop	rsi	#
	.cfi_def_cfa_offset 16
	pop	rdi	#
	.cfi_def_cfa_offset 8
	ret
	.cfi_endproc
.LFE154:
	.size	pre_do_sigaction, .-pre_do_sigaction
	.align 16
	.globl	sys_select
	.type	sys_select, @function
sys_select:
.LFB155:
	.cfi_startproc
	push	r14	#
	.cfi_def_cfa_offset 16
	.cfi_offset 14, -16
	push	r13	#
	.cfi_def_cfa_offset 24
	.cfi_offset 13, -24
	push	r12	#
	.cfi_def_cfa_offset 32
	.cfi_offset 12, -32
	push	r11	#
	.cfi_def_cfa_offset 40
	.cfi_offset 11, -40
	push	r10	#
	.cfi_def_cfa_offset 48
	.cfi_offset 10, -48
	push	r9	#
	.cfi_def_cfa_offset 56
	.cfi_offset 9, -56
	push	r8	#
	.cfi_def_cfa_offset 64
	.cfi_offset 8, -64
	push	rdi	#
	.cfi_def_cfa_offset 72
	.cfi_offset 5, -72
	push	rax	#
	.cfi_def_cfa_offset 80
	.cfi_offset 0, -80
# handlers.c:1895:     long save_rax = __read_reg("rax");
#APP
# 1895 "handlers.c" 1
	mov r14, rax	# val
	
# 0 "" 2
# handlers.c:1897:     vmcall_7(det_sys_select,current_task,save_n,save_inp,save_outp,save_exp,save_tvp,save_rax);
#NO_APP
	mov	r8d, DWORD PTR hypercall_info[rip+11232]	# hypercall_info.OsSpecificFields.CurrentTaskOffset, hypercall_info.OsSpecificFields.CurrentTaskOffset
#APP
# 1897 "handlers.c" 1
	mov r8, gs:[r8]	# ret, hypercall_info.OsSpecificFields.CurrentTaskOffset
# 0 "" 2
#NO_APP
	movsx	r9, DWORD PTR 88[rsp]	# __p2, save_n
	mov	r10, QWORD PTR 96[rsp]	# __p3, save_inp
	mov	r11, QWORD PTR 104[rsp]	# __p4, save_outp
	mov	r12, QWORD PTR 112[rsp]	# __p5, save_exp
	mov	r13, QWORD PTR 120[rsp]	# __p6, save_tvp
	mov	edi, 91	#,
	call	vmcall	#
# handlers.c:1898: }
	pop	rax	#
	.cfi_def_cfa_offset 72
	pop	rdi	#
	.cfi_def_cfa_offset 64
	pop	r8	#
	.cfi_def_cfa_offset 56
	pop	r9	#
	.cfi_def_cfa_offset 48
	pop	r10	#
	.cfi_def_cfa_offset 40
	pop	r11	#
	.cfi_def_cfa_offset 32
	pop	r12	#
	.cfi_def_cfa_offset 24
	pop	r13	#
	.cfi_def_cfa_offset 16
	pop	r14	#
	.cfi_def_cfa_offset 8
	ret
	.cfi_endproc
.LFE155:
	.size	sys_select, .-sys_select
	.align 16
	.globl	pre_sys_select
	.type	pre_sys_select, @function
pre_sys_select:
.LFB156:
	.cfi_startproc
	push	r8	#
	.cfi_def_cfa_offset 16
	.cfi_offset 8, -16
	push	rdi	#
	.cfi_def_cfa_offset 24
	.cfi_offset 5, -24
	push	rsi	#
	.cfi_def_cfa_offset 32
	.cfi_offset 4, -32
	push	rcx	#
	.cfi_def_cfa_offset 40
	.cfi_offset 2, -40
	push	rdx	#
	.cfi_def_cfa_offset 48
	.cfi_offset 1, -48
	push	rax	#
	.cfi_def_cfa_offset 56
	.cfi_offset 0, -56
# handlers.c:1904:     *skip_call=0;
	mov	rax, QWORD PTR 56[rsp]	# skip_call, skip_call
	mov	QWORD PTR [rax], 0	# *skip_call_2(D),
# handlers.c:1905:     *save_n=n;
	mov	rax, QWORD PTR 64[rsp]	# save_n, save_n
	mov	DWORD PTR [rax], edi	# *save_n_4(D), n
# handlers.c:1906:     *save_inp=inp;
	mov	rax, QWORD PTR 72[rsp]	# save_inp, save_inp
	mov	QWORD PTR [rax], rsi	# *save_inp_7(D), inp
# handlers.c:1907:     *save_outp=outp;
	mov	rax, QWORD PTR 80[rsp]	# save_outp, save_outp
	mov	QWORD PTR [rax], rdx	# *save_outp_10(D), outp
# handlers.c:1908:     *save_exp=exp;
	mov	rax, QWORD PTR 88[rsp]	# save_exp, save_exp
	mov	QWORD PTR [rax], rcx	# *save_exp_13(D), exp
# handlers.c:1909:     *save_tvp=tvp;
	mov	rax, QWORD PTR 96[rsp]	# save_tvp, save_tvp
	mov	QWORD PTR [rax], r8	# *save_tvp_16(D), tvp
# handlers.c:1910: }
	pop	rax	#
	.cfi_def_cfa_offset 48
	pop	rdx	#
	.cfi_def_cfa_offset 40
	pop	rcx	#
	.cfi_def_cfa_offset 32
	pop	rsi	#
	.cfi_def_cfa_offset 24
	pop	rdi	#
	.cfi_def_cfa_offset 16
	pop	r8	#
	.cfi_def_cfa_offset 8
	ret
	.cfi_endproc
.LFE156:
	.size	pre_sys_select, .-pre_sys_select
	.align 16
	.globl	sys_clock_gettime
	.type	sys_clock_gettime, @function
sys_clock_gettime:
.LFB157:
	.cfi_startproc
	push	r11	#
	.cfi_def_cfa_offset 16
	.cfi_offset 11, -16
	push	r10	#
	.cfi_def_cfa_offset 24
	.cfi_offset 10, -24
	push	r9	#
	.cfi_def_cfa_offset 32
	.cfi_offset 9, -32
	push	r8	#
	.cfi_def_cfa_offset 40
	.cfi_offset 8, -40
	push	rdi	#
	.cfi_def_cfa_offset 48
	.cfi_offset 5, -48
	push	rax	#
	.cfi_def_cfa_offset 56
	.cfi_offset 0, -56
# handlers.c:1916:     long save_rax = __read_reg("rax");
#APP
# 1916 "handlers.c" 1
	mov r11, rax	# val
	
# 0 "" 2
# handlers.c:1918:     vmcall_4(det_sys_clock_gettime,current_task,save_which_clock,save_tp,save_rax);
#NO_APP
	mov	r8d, DWORD PTR hypercall_info[rip+11232]	# hypercall_info.OsSpecificFields.CurrentTaskOffset, hypercall_info.OsSpecificFields.CurrentTaskOffset
#APP
# 1918 "handlers.c" 1
	mov r8, gs:[r8]	# ret, hypercall_info.OsSpecificFields.CurrentTaskOffset
# 0 "" 2
#NO_APP
	mov	r9, QWORD PTR 64[rsp]	# __p2, save_which_clock
	mov	r10, QWORD PTR 72[rsp]	# __p3, save_tp
	mov	edi, 92	#,
	call	vmcall	#
# handlers.c:1919: }
	pop	rax	#
	.cfi_def_cfa_offset 48
	pop	rdi	#
	.cfi_def_cfa_offset 40
	pop	r8	#
	.cfi_def_cfa_offset 32
	pop	r9	#
	.cfi_def_cfa_offset 24
	pop	r10	#
	.cfi_def_cfa_offset 16
	pop	r11	#
	.cfi_def_cfa_offset 8
	ret
	.cfi_endproc
.LFE157:
	.size	sys_clock_gettime, .-sys_clock_gettime
	.align 16
	.globl	pre_sys_clock_gettime
	.type	pre_sys_clock_gettime, @function
pre_sys_clock_gettime:
.LFB158:
	.cfi_startproc
	push	rdi	#
	.cfi_def_cfa_offset 16
	.cfi_offset 5, -16
	push	rsi	#
	.cfi_def_cfa_offset 24
	.cfi_offset 4, -24
	push	rax	#
	.cfi_def_cfa_offset 32
	.cfi_offset 0, -32
# handlers.c:1925:     *skip_call=0;
	mov	rax, QWORD PTR 32[rsp]	# skip_call, skip_call
	mov	QWORD PTR [rax], 0	# *skip_call_2(D),
# handlers.c:1926:     *save_which_clock=which_clock;
	mov	rax, QWORD PTR 40[rsp]	# save_which_clock, save_which_clock
	mov	QWORD PTR [rax], rdi	# *save_which_clock_4(D), which_clock
# handlers.c:1927:     *save_tp=tp;
	mov	rax, QWORD PTR 48[rsp]	# save_tp, save_tp
	mov	QWORD PTR [rax], rsi	# *save_tp_7(D), tp
# handlers.c:1928: }
	pop	rax	#
	.cfi_def_cfa_offset 24
	pop	rsi	#
	.cfi_def_cfa_offset 16
	pop	rdi	#
	.cfi_def_cfa_offset 8
	ret
	.cfi_endproc
.LFE158:
	.size	pre_sys_clock_gettime, .-pre_sys_clock_gettime
	.align 16
	.globl	sys_perf_event_open
	.type	sys_perf_event_open, @function
sys_perf_event_open:
.LFB159:
	.cfi_startproc
	push	r14	#
	.cfi_def_cfa_offset 16
	.cfi_offset 14, -16
	push	r13	#
	.cfi_def_cfa_offset 24
	.cfi_offset 13, -24
	push	r12	#
	.cfi_def_cfa_offset 32
	.cfi_offset 12, -32
	push	r11	#
	.cfi_def_cfa_offset 40
	.cfi_offset 11, -40
	push	r10	#
	.cfi_def_cfa_offset 48
	.cfi_offset 10, -48
	push	r9	#
	.cfi_def_cfa_offset 56
	.cfi_offset 9, -56
	push	r8	#
	.cfi_def_cfa_offset 64
	.cfi_offset 8, -64
	push	rdi	#
	.cfi_def_cfa_offset 72
	.cfi_offset 5, -72
	push	rax	#
	.cfi_def_cfa_offset 80
	.cfi_offset 0, -80
# handlers.c:1935:     long save_rax = __read_reg("rax");
#APP
# 1935 "handlers.c" 1
	mov r14, rax	# val
	
# 0 "" 2
# handlers.c:1937:     vmcall_7(det_sys_clock_gettime,current_task,save_attr,save_pid,save_cpu,save_group_fd,save_flags,save_rax);
#NO_APP
	mov	r8d, DWORD PTR hypercall_info[rip+11232]	# hypercall_info.OsSpecificFields.CurrentTaskOffset, hypercall_info.OsSpecificFields.CurrentTaskOffset
#APP
# 1937 "handlers.c" 1
	mov r8, gs:[r8]	# ret, hypercall_info.OsSpecificFields.CurrentTaskOffset
# 0 "" 2
#NO_APP
	mov	r9, QWORD PTR 88[rsp]	# __p2, save_attr
	mov	r10d, DWORD PTR 96[rsp]	# __p3, save_pid
	movsx	r11, DWORD PTR 104[rsp]	# __p4, save_cpu
	movsx	r12, DWORD PTR 112[rsp]	# __p5, save_group_fd
	mov	r13, QWORD PTR 120[rsp]	# __p6, save_flags
	mov	edi, 92	#,
	call	vmcall	#
# handlers.c:1938: }
	pop	rax	#
	.cfi_def_cfa_offset 72
	pop	rdi	#
	.cfi_def_cfa_offset 64
	pop	r8	#
	.cfi_def_cfa_offset 56
	pop	r9	#
	.cfi_def_cfa_offset 48
	pop	r10	#
	.cfi_def_cfa_offset 40
	pop	r11	#
	.cfi_def_cfa_offset 32
	pop	r12	#
	.cfi_def_cfa_offset 24
	pop	r13	#
	.cfi_def_cfa_offset 16
	pop	r14	#
	.cfi_def_cfa_offset 8
	ret
	.cfi_endproc
.LFE159:
	.size	sys_perf_event_open, .-sys_perf_event_open
	.align 16
	.globl	pre_sys_perf_event_open
	.type	pre_sys_perf_event_open, @function
pre_sys_perf_event_open:
.LFB160:
	.cfi_startproc
	push	r8	#
	.cfi_def_cfa_offset 16
	.cfi_offset 8, -16
	push	rdi	#
	.cfi_def_cfa_offset 24
	.cfi_offset 5, -24
	push	rsi	#
	.cfi_def_cfa_offset 32
	.cfi_offset 4, -32
	push	rcx	#
	.cfi_def_cfa_offset 40
	.cfi_offset 2, -40
	push	rdx	#
	.cfi_def_cfa_offset 48
	.cfi_offset 1, -48
	push	rax	#
	.cfi_def_cfa_offset 56
	.cfi_offset 0, -56
# handlers.c:1945:     *skip_call=0;
	mov	rax, QWORD PTR 56[rsp]	# skip_call, skip_call
	mov	QWORD PTR [rax], 0	# *skip_call_2(D),
# handlers.c:1946:     *save_attr=attr;
	mov	rax, QWORD PTR 64[rsp]	# save_attr, save_attr
	mov	QWORD PTR [rax], rdi	# *save_attr_4(D), attr
# handlers.c:1947:     *save_pid=pid;
	mov	rax, QWORD PTR 72[rsp]	# save_pid, save_pid
	mov	DWORD PTR [rax], esi	# *save_pid_7(D), pid
# handlers.c:1948:     *save_cpu=cpu;
	mov	rax, QWORD PTR 80[rsp]	# save_cpu, save_cpu
	mov	DWORD PTR [rax], edx	# *save_cpu_10(D), cpu
# handlers.c:1949:     *save_group_fd=group_fd;
	mov	rax, QWORD PTR 88[rsp]	# save_group_fd, save_group_fd
	mov	DWORD PTR [rax], ecx	# *save_group_fd_13(D), group_fd
# handlers.c:1950:     *save_flags=flags;
	mov	rax, QWORD PTR 96[rsp]	# save_flags, save_flags
	mov	QWORD PTR [rax], r8	# *save_flags_16(D), flags
# handlers.c:1951: }
	pop	rax	#
	.cfi_def_cfa_offset 48
	pop	rdx	#
	.cfi_def_cfa_offset 40
	pop	rcx	#
	.cfi_def_cfa_offset 32
	pop	rsi	#
	.cfi_def_cfa_offset 24
	pop	rdi	#
	.cfi_def_cfa_offset 16
	pop	r8	#
	.cfi_def_cfa_offset 8
	ret
	.cfi_endproc
.LFE160:
	.size	pre_sys_perf_event_open, .-pre_sys_perf_event_open
	.align 16
	.globl	sys_newuname
	.type	sys_newuname, @function
sys_newuname:
.LFB161:
	.cfi_startproc
	push	r10	#
	.cfi_def_cfa_offset 16
	.cfi_offset 10, -16
	push	r9	#
	.cfi_def_cfa_offset 24
	.cfi_offset 9, -24
	push	r8	#
	.cfi_def_cfa_offset 32
	.cfi_offset 8, -32
	push	rdi	#
	.cfi_def_cfa_offset 40
	.cfi_offset 5, -40
	push	rax	#
	.cfi_def_cfa_offset 48
	.cfi_offset 0, -48
# handlers.c:1957:     long save_rax = __read_reg("rax");
#APP
# 1957 "handlers.c" 1
	mov r10, rax	# val
	
# 0 "" 2
# handlers.c:1959:     vmcall_3(det_sys_newuname,current_task,save_a,save_rax);
#NO_APP
	mov	r8d, DWORD PTR hypercall_info[rip+11232]	# hypercall_info.OsSpecificFields.CurrentTaskOffset, hypercall_info.OsSpecificFields.CurrentTaskOffset
#APP
# 1959 "handlers.c" 1
	mov r8, gs:[r8]	# ret, hypercall_info.OsSpecificFields.CurrentTaskOffset
# 0 "" 2
#NO_APP
	mov	r9, QWORD PTR 56[rsp]	# __p2, save_a
	mov	edi, 94	#,
	call	vmcall	#
# handlers.c:1960: }
	pop	rax	#
	.cfi_def_cfa_offset 40
	pop	rdi	#
	.cfi_def_cfa_offset 32
	pop	r8	#
	.cfi_def_cfa_offset 24
	pop	r9	#
	.cfi_def_cfa_offset 16
	pop	r10	#
	.cfi_def_cfa_offset 8
	ret
	.cfi_endproc
.LFE161:
	.size	sys_newuname, .-sys_newuname
	.align 16
	.globl	pre_sys_newuname
	.type	pre_sys_newuname, @function
pre_sys_newuname:
.LFB212:
	.cfi_startproc
	push	rdi	#
	.cfi_def_cfa_offset 16
	.cfi_offset 5, -16
	push	rax	#
	.cfi_def_cfa_offset 24
	.cfi_offset 0, -24
	mov	rax, QWORD PTR 24[rsp]	# skip_call, skip_call
	mov	QWORD PTR [rax], 0	# *skip_call_8(D),
	mov	rax, QWORD PTR 32[rsp]	# save_a, save_a
	mov	QWORD PTR [rax], rdi	# *save_a_9(D), a
	pop	rax	#
	.cfi_def_cfa_offset 16
	pop	rdi	#
	.cfi_def_cfa_offset 8
	ret
	.cfi_endproc
.LFE212:
	.size	pre_sys_newuname, .-pre_sys_newuname
	.align 16
	.globl	sys_reboot
	.type	sys_reboot, @function
sys_reboot:
.LFB163:
	.cfi_startproc
# handlers.c:1973: {
	push	r13	#
	.cfi_def_cfa_offset 16
	.cfi_offset 13, -16
	push	r12	#
	.cfi_def_cfa_offset 24
	.cfi_offset 12, -24
	push	r11	#
	.cfi_def_cfa_offset 32
	.cfi_offset 11, -32
	push	r10	#
	.cfi_def_cfa_offset 40
	.cfi_offset 10, -40
	push	r9	#
	.cfi_def_cfa_offset 48
	.cfi_offset 9, -48
	push	r8	#
	.cfi_def_cfa_offset 56
	.cfi_offset 8, -56
	push	rdi	#
	.cfi_def_cfa_offset 64
	.cfi_offset 5, -64
	push	rax	#
	.cfi_def_cfa_offset 72
	.cfi_offset 0, -72
# handlers.c:1974:     long save_rax = __read_reg("rax");
#APP
# 1974 "handlers.c" 1
	mov r13, rax	# val
	
# 0 "" 2
# handlers.c:1976:     vmcall_6(det_sys_reboot,current_task,save_magic1,save_magic2,save_cmd,save_arg,save_rax);
#NO_APP
	mov	r8d, DWORD PTR hypercall_info[rip+11232]	# hypercall_info.OsSpecificFields.CurrentTaskOffset, hypercall_info.OsSpecificFields.CurrentTaskOffset
#APP
# 1976 "handlers.c" 1
	mov r8, gs:[r8]	# ret, hypercall_info.OsSpecificFields.CurrentTaskOffset
# 0 "" 2
#NO_APP
	movsx	r9, DWORD PTR 80[rsp]	# __p2, save_magic1
	movsx	r10, DWORD PTR 88[rsp]	# __p3, save_magic2
	mov	r11d, DWORD PTR 96[rsp]	# __p4, save_cmd
	mov	r12, QWORD PTR 104[rsp]	# __p5, save_arg
	mov	edi, 95	#,
	call	vmcall	#
# handlers.c:1977: }
	pop	rax	#
	.cfi_def_cfa_offset 64
	pop	rdi	#
	.cfi_def_cfa_offset 56
	pop	r8	#
	.cfi_def_cfa_offset 48
	pop	r9	#
	.cfi_def_cfa_offset 40
	pop	r10	#
	.cfi_def_cfa_offset 32
	pop	r11	#
	.cfi_def_cfa_offset 24
	pop	r12	#
	.cfi_def_cfa_offset 16
	pop	r13	#
	.cfi_def_cfa_offset 8
	ret
	.cfi_endproc
.LFE163:
	.size	sys_reboot, .-sys_reboot
	.align 16
	.globl	pre_sys_reboot
	.type	pre_sys_reboot, @function
pre_sys_reboot:
.LFB164:
	.cfi_startproc
	push	rdi	#
	.cfi_def_cfa_offset 16
	.cfi_offset 5, -16
	push	rsi	#
	.cfi_def_cfa_offset 24
	.cfi_offset 4, -24
	push	rcx	#
	.cfi_def_cfa_offset 32
	.cfi_offset 2, -32
	push	rdx	#
	.cfi_def_cfa_offset 40
	.cfi_offset 1, -40
	push	rax	#
	.cfi_def_cfa_offset 48
	.cfi_offset 0, -48
# handlers.c:1983:     *skip_call=0;
	mov	rax, QWORD PTR 48[rsp]	# skip_call, skip_call
	mov	QWORD PTR [rax], 0	# *skip_call_2(D),
# handlers.c:1984:     *save_magic1=magic1;
	mov	rax, QWORD PTR 56[rsp]	# save_magic1, save_magic1
	mov	DWORD PTR [rax], edi	# *save_magic1_4(D), magic1
# handlers.c:1985:     *save_magic2=magic2;
	mov	rax, QWORD PTR 64[rsp]	# save_magic2, save_magic2
	mov	DWORD PTR [rax], esi	# *save_magic2_7(D), magic2
# handlers.c:1986:     *save_cmd=cmd;
	mov	rax, QWORD PTR 72[rsp]	# save_cmd, save_cmd
	mov	DWORD PTR [rax], edx	# *save_cmd_10(D), cmd
# handlers.c:1987:     *save_arg=arg;
	mov	rax, QWORD PTR 80[rsp]	# save_arg, save_arg
	mov	QWORD PTR [rax], rcx	# *save_arg_13(D), arg
# handlers.c:1988: }
	pop	rax	#
	.cfi_def_cfa_offset 40
	pop	rdx	#
	.cfi_def_cfa_offset 32
	pop	rcx	#
	.cfi_def_cfa_offset 24
	pop	rsi	#
	.cfi_def_cfa_offset 16
	pop	rdi	#
	.cfi_def_cfa_offset 8
	ret
	.cfi_endproc
.LFE164:
	.size	pre_sys_reboot, .-pre_sys_reboot
	.align 16
	.globl	sys_init_module
	.type	sys_init_module, @function
sys_init_module:
.LFB165:
	.cfi_startproc
	push	r12	#
	.cfi_def_cfa_offset 16
	.cfi_offset 12, -16
	push	r11	#
	.cfi_def_cfa_offset 24
	.cfi_offset 11, -24
	push	r10	#
	.cfi_def_cfa_offset 32
	.cfi_offset 10, -32
	push	r9	#
	.cfi_def_cfa_offset 40
	.cfi_offset 9, -40
	push	r8	#
	.cfi_def_cfa_offset 48
	.cfi_offset 8, -48
	push	rdi	#
	.cfi_def_cfa_offset 56
	.cfi_offset 5, -56
	push	rax	#
	.cfi_def_cfa_offset 64
	.cfi_offset 0, -64
# handlers.c:1994:     long save_rax = __read_reg("rax");
#APP
# 1994 "handlers.c" 1
	mov r12, rax	# val
	
# 0 "" 2
# handlers.c:1996:     vmcall_5(det_sys_init_module,current_task,save_umod,save_len,save_uargs,save_rax);
#NO_APP
	mov	r8d, DWORD PTR hypercall_info[rip+11232]	# hypercall_info.OsSpecificFields.CurrentTaskOffset, hypercall_info.OsSpecificFields.CurrentTaskOffset
#APP
# 1996 "handlers.c" 1
	mov r8, gs:[r8]	# ret, hypercall_info.OsSpecificFields.CurrentTaskOffset
# 0 "" 2
#NO_APP
	mov	r9, QWORD PTR 72[rsp]	# __p2, save_umod
	mov	r10, QWORD PTR 80[rsp]	# __p3, save_len
	mov	r11, QWORD PTR 88[rsp]	# __p4, save_uargs
	mov	edi, 96	#,
	call	vmcall	#
# handlers.c:1997: }
	pop	rax	#
	.cfi_def_cfa_offset 56
	pop	rdi	#
	.cfi_def_cfa_offset 48
	pop	r8	#
	.cfi_def_cfa_offset 40
	pop	r9	#
	.cfi_def_cfa_offset 32
	pop	r10	#
	.cfi_def_cfa_offset 24
	pop	r11	#
	.cfi_def_cfa_offset 16
	pop	r12	#
	.cfi_def_cfa_offset 8
	ret
	.cfi_endproc
.LFE165:
	.size	sys_init_module, .-sys_init_module
	.align 16
	.globl	pre_sys_init_module
	.type	pre_sys_init_module, @function
pre_sys_init_module:
.LFB166:
	.cfi_startproc
	push	rdi	#
	.cfi_def_cfa_offset 16
	.cfi_offset 5, -16
	push	rsi	#
	.cfi_def_cfa_offset 24
	.cfi_offset 4, -24
	push	rdx	#
	.cfi_def_cfa_offset 32
	.cfi_offset 1, -32
	push	rax	#
	.cfi_def_cfa_offset 40
	.cfi_offset 0, -40
# handlers.c:2003:     *skip_call=0;
	mov	rax, QWORD PTR 40[rsp]	# skip_call, skip_call
	mov	QWORD PTR [rax], 0	# *skip_call_2(D),
# handlers.c:2004:     *save_umod=umod;
	mov	rax, QWORD PTR 48[rsp]	# save_umod, save_umod
	mov	QWORD PTR [rax], rdi	# *save_umod_4(D), umod
# handlers.c:2005:     *save_len=len;
	mov	rax, QWORD PTR 56[rsp]	# save_len, save_len
	mov	QWORD PTR [rax], rsi	# *save_len_7(D), len
# handlers.c:2006:     *save_uargs=uargs;
	mov	rax, QWORD PTR 64[rsp]	# save_uargs, save_uargs
	mov	QWORD PTR [rax], rdx	# *save_uargs_10(D), uargs
# handlers.c:2007: }
	pop	rax	#
	.cfi_def_cfa_offset 32
	pop	rdx	#
	.cfi_def_cfa_offset 24
	pop	rsi	#
	.cfi_def_cfa_offset 16
	pop	rdi	#
	.cfi_def_cfa_offset 8
	ret
	.cfi_endproc
.LFE166:
	.size	pre_sys_init_module, .-pre_sys_init_module
	.align 16
	.globl	sys_delete_module
	.type	sys_delete_module, @function
sys_delete_module:
.LFB167:
	.cfi_startproc
	push	r11	#
	.cfi_def_cfa_offset 16
	.cfi_offset 11, -16
	push	r10	#
	.cfi_def_cfa_offset 24
	.cfi_offset 10, -24
	push	r9	#
	.cfi_def_cfa_offset 32
	.cfi_offset 9, -32
	push	r8	#
	.cfi_def_cfa_offset 40
	.cfi_offset 8, -40
	push	rdi	#
	.cfi_def_cfa_offset 48
	.cfi_offset 5, -48
	push	rax	#
	.cfi_def_cfa_offset 56
	.cfi_offset 0, -56
# handlers.c:2013:     long save_rax = __read_reg("rax");
#APP
# 2013 "handlers.c" 1
	mov r11, rax	# val
	
# 0 "" 2
# handlers.c:2015:     vmcall_4(det_sys_delete_module,current_task,save_name_user,save_flags,save_rax);
#NO_APP
	mov	r8d, DWORD PTR hypercall_info[rip+11232]	# hypercall_info.OsSpecificFields.CurrentTaskOffset, hypercall_info.OsSpecificFields.CurrentTaskOffset
#APP
# 2015 "handlers.c" 1
	mov r8, gs:[r8]	# ret, hypercall_info.OsSpecificFields.CurrentTaskOffset
# 0 "" 2
#NO_APP
	mov	r9, QWORD PTR 64[rsp]	# __p2, save_name_user
	mov	r10d, DWORD PTR 72[rsp]	# __p3, save_flags
	mov	edi, 97	#,
	call	vmcall	#
# handlers.c:2016: }
	pop	rax	#
	.cfi_def_cfa_offset 48
	pop	rdi	#
	.cfi_def_cfa_offset 40
	pop	r8	#
	.cfi_def_cfa_offset 32
	pop	r9	#
	.cfi_def_cfa_offset 24
	pop	r10	#
	.cfi_def_cfa_offset 16
	pop	r11	#
	.cfi_def_cfa_offset 8
	ret
	.cfi_endproc
.LFE167:
	.size	sys_delete_module, .-sys_delete_module
	.align 16
	.globl	pre_sys_delete_module
	.type	pre_sys_delete_module, @function
pre_sys_delete_module:
.LFB168:
	.cfi_startproc
	push	rdi	#
	.cfi_def_cfa_offset 16
	.cfi_offset 5, -16
	push	rsi	#
	.cfi_def_cfa_offset 24
	.cfi_offset 4, -24
	push	rax	#
	.cfi_def_cfa_offset 32
	.cfi_offset 0, -32
# handlers.c:2022:     *skip_call=0;
	mov	rax, QWORD PTR 32[rsp]	# skip_call, skip_call
	mov	QWORD PTR [rax], 0	# *skip_call_2(D),
# handlers.c:2023:     *save_name_user=name_user;
	mov	rax, QWORD PTR 40[rsp]	# save_name_user, save_name_user
	mov	QWORD PTR [rax], rdi	# *save_name_user_4(D), name_user
# handlers.c:2024:     *save_flags=flags;
	mov	rax, QWORD PTR 48[rsp]	# save_flags, save_flags
	mov	DWORD PTR [rax], esi	# *save_flags_7(D), flags
# handlers.c:2025: }
	pop	rax	#
	.cfi_def_cfa_offset 24
	pop	rsi	#
	.cfi_def_cfa_offset 16
	pop	rdi	#
	.cfi_def_cfa_offset 8
	ret
	.cfi_endproc
.LFE168:
	.size	pre_sys_delete_module, .-pre_sys_delete_module
	.align 16
	.globl	sys_finit_module
	.type	sys_finit_module, @function
sys_finit_module:
.LFB169:
	.cfi_startproc
	push	r12	#
	.cfi_def_cfa_offset 16
	.cfi_offset 12, -16
	push	r11	#
	.cfi_def_cfa_offset 24
	.cfi_offset 11, -24
	push	r10	#
	.cfi_def_cfa_offset 32
	.cfi_offset 10, -32
	push	r9	#
	.cfi_def_cfa_offset 40
	.cfi_offset 9, -40
	push	r8	#
	.cfi_def_cfa_offset 48
	.cfi_offset 8, -48
	push	rdi	#
	.cfi_def_cfa_offset 56
	.cfi_offset 5, -56
	push	rax	#
	.cfi_def_cfa_offset 64
	.cfi_offset 0, -64
# handlers.c:2031:     long save_rax = __read_reg("rax");
#APP
# 2031 "handlers.c" 1
	mov r12, rax	# val
	
# 0 "" 2
# handlers.c:2033:     vmcall_5(det_sys_finit_module,current_task,save_fd,save_uargs,save_flags,save_rax);
#NO_APP
	mov	r8d, DWORD PTR hypercall_info[rip+11232]	# hypercall_info.OsSpecificFields.CurrentTaskOffset, hypercall_info.OsSpecificFields.CurrentTaskOffset
#APP
# 2033 "handlers.c" 1
	mov r8, gs:[r8]	# ret, hypercall_info.OsSpecificFields.CurrentTaskOffset
# 0 "" 2
#NO_APP
	movsx	r9, DWORD PTR 72[rsp]	# __p2, save_fd
	mov	r10, QWORD PTR 80[rsp]	# __p3, save_uargs
	movsx	r11, DWORD PTR 88[rsp]	# __p4, save_flags
	mov	edi, 98	#,
	call	vmcall	#
# handlers.c:2034: }
	pop	rax	#
	.cfi_def_cfa_offset 56
	pop	rdi	#
	.cfi_def_cfa_offset 48
	pop	r8	#
	.cfi_def_cfa_offset 40
	pop	r9	#
	.cfi_def_cfa_offset 32
	pop	r10	#
	.cfi_def_cfa_offset 24
	pop	r11	#
	.cfi_def_cfa_offset 16
	pop	r12	#
	.cfi_def_cfa_offset 8
	ret
	.cfi_endproc
.LFE169:
	.size	sys_finit_module, .-sys_finit_module
	.align 16
	.globl	pre_sys_finit_module
	.type	pre_sys_finit_module, @function
pre_sys_finit_module:
.LFB216:
	.cfi_startproc
	push	rdi	#
	.cfi_def_cfa_offset 16
	.cfi_offset 5, -16
	push	rsi	#
	.cfi_def_cfa_offset 24
	.cfi_offset 4, -24
	push	rdx	#
	.cfi_def_cfa_offset 32
	.cfi_offset 1, -32
	push	rax	#
	.cfi_def_cfa_offset 40
	.cfi_offset 0, -40
	mov	rax, QWORD PTR 40[rsp]	# skip_call, skip_call
	mov	QWORD PTR [rax], 0	# *skip_call_8(D),
	mov	rax, QWORD PTR 48[rsp]	# save_fd, save_fd
	mov	DWORD PTR [rax], edi	# *save_fd_9(D), fd
	mov	rax, QWORD PTR 56[rsp]	# save_uargs, save_uargs
	mov	QWORD PTR [rax], rsi	# *save_uargs_10(D), uargs
	mov	rax, QWORD PTR 64[rsp]	# save_flags, save_flags
	mov	DWORD PTR [rax], edx	# *save_flags_11(D), flags
	pop	rax	#
	.cfi_def_cfa_offset 32
	pop	rdx	#
	.cfi_def_cfa_offset 24
	pop	rsi	#
	.cfi_def_cfa_offset 16
	pop	rdi	#
	.cfi_def_cfa_offset 8
	ret
	.cfi_endproc
.LFE216:
	.size	pre_sys_finit_module, .-pre_sys_finit_module
	.align 16
	.globl	sys_write
	.type	sys_write, @function
sys_write:
.LFB171:
	.cfi_startproc
# handlers.c:2050: {
	push	r12	#
	.cfi_def_cfa_offset 16
	.cfi_offset 12, -16
	push	r11	#
	.cfi_def_cfa_offset 24
	.cfi_offset 11, -24
	push	r10	#
	.cfi_def_cfa_offset 32
	.cfi_offset 10, -32
	push	r9	#
	.cfi_def_cfa_offset 40
	.cfi_offset 9, -40
	push	r8	#
	.cfi_def_cfa_offset 48
	.cfi_offset 8, -48
	push	rdi	#
	.cfi_def_cfa_offset 56
	.cfi_offset 5, -56
	push	rax	#
	.cfi_def_cfa_offset 64
	.cfi_offset 0, -64
# handlers.c:2051:     long save_rax = __read_reg("rax");
#APP
# 2051 "handlers.c" 1
	mov r12, rax	# val
	
# 0 "" 2
# handlers.c:2052:     vmcall_5(det_sys_write,current_task,save_fd, save_buf, save_count,save_rax);
#NO_APP
	mov	r8d, DWORD PTR hypercall_info[rip+11232]	# hypercall_info.OsSpecificFields.CurrentTaskOffset, hypercall_info.OsSpecificFields.CurrentTaskOffset
#APP
# 2052 "handlers.c" 1
	mov r8, gs:[r8]	# ret, hypercall_info.OsSpecificFields.CurrentTaskOffset
# 0 "" 2
#NO_APP
	mov	r9d, DWORD PTR 72[rsp]	# __p2, save_fd
	mov	r10, QWORD PTR 80[rsp]	# __p3, save_buf
	movsx	r11, DWORD PTR 88[rsp]	# __p4, save_count
	mov	edi, 99	#,
	call	vmcall	#
# handlers.c:2053: }
	pop	rax	#
	.cfi_def_cfa_offset 56
	pop	rdi	#
	.cfi_def_cfa_offset 48
	pop	r8	#
	.cfi_def_cfa_offset 40
	pop	r9	#
	.cfi_def_cfa_offset 32
	pop	r10	#
	.cfi_def_cfa_offset 24
	pop	r11	#
	.cfi_def_cfa_offset 16
	pop	r12	#
	.cfi_def_cfa_offset 8
	ret
	.cfi_endproc
.LFE171:
	.size	sys_write, .-sys_write
	.align 16
	.globl	pre_sys_write
	.type	pre_sys_write, @function
pre_sys_write:
.LFB214:
	.cfi_startproc
	push	rdi	#
	.cfi_def_cfa_offset 16
	.cfi_offset 5, -16
	push	rsi	#
	.cfi_def_cfa_offset 24
	.cfi_offset 4, -24
	push	rdx	#
	.cfi_def_cfa_offset 32
	.cfi_offset 1, -32
	push	rax	#
	.cfi_def_cfa_offset 40
	.cfi_offset 0, -40
	mov	rax, QWORD PTR 40[rsp]	# skip_call, skip_call
	mov	QWORD PTR [rax], 0	# *skip_call_8(D),
	mov	rax, QWORD PTR 48[rsp]	# save_fd, save_fd
	mov	DWORD PTR [rax], edi	# *save_fd_9(D), fd
	mov	rax, QWORD PTR 56[rsp]	# save_buf, save_buf
	mov	QWORD PTR [rax], rsi	# *save_buf_10(D), buf
	mov	rax, QWORD PTR 64[rsp]	# save_count, save_count
	mov	DWORD PTR [rax], edx	# *save_count_11(D), count
	pop	rax	#
	.cfi_def_cfa_offset 32
	pop	rdx	#
	.cfi_def_cfa_offset 24
	pop	rsi	#
	.cfi_def_cfa_offset 16
	pop	rdi	#
	.cfi_def_cfa_offset 8
	ret
	.cfi_endproc
.LFE214:
	.size	pre_sys_write, .-pre_sys_write
	.align 16
	.globl	pre_do_sys_open
	.type	pre_do_sys_open, @function
pre_do_sys_open:
.LFB173:
	.cfi_startproc
# handlers.c:2067: {
	push	rsi	#
	.cfi_def_cfa_offset 16
	.cfi_offset 4, -16
	push	rcx	#
	.cfi_def_cfa_offset 24
	.cfi_offset 2, -24
	push	rdx	#
	.cfi_def_cfa_offset 32
	.cfi_offset 1, -32
	push	rax	#
	.cfi_def_cfa_offset 40
	.cfi_offset 0, -40
# handlers.c:2068:     *skip_call=0;
	mov	rax, QWORD PTR 40[rsp]	# skip_call, skip_call
	mov	QWORD PTR [rax], 0	# *skip_call_2(D),
# handlers.c:2069:     *save_filename=filename;
	mov	rax, QWORD PTR 48[rsp]	# save_filename, save_filename
	mov	QWORD PTR [rax], rsi	# *save_filename_4(D), filename
# handlers.c:2070:     *save_flags=flags;
	mov	rax, QWORD PTR 56[rsp]	# save_flags, save_flags
	mov	DWORD PTR [rax], edx	# *save_flags_7(D), flags
# handlers.c:2071:     *save_mode=mode;
	mov	rax, QWORD PTR 64[rsp]	# save_mode, save_mode
	mov	QWORD PTR [rax], rcx	# *save_mode_10(D), mode
# handlers.c:2072: }
	pop	rax	#
	.cfi_def_cfa_offset 32
	pop	rdx	#
	.cfi_def_cfa_offset 24
	pop	rcx	#
	.cfi_def_cfa_offset 16
	pop	rsi	#
	.cfi_def_cfa_offset 8
	ret
	.cfi_endproc
.LFE173:
	.size	pre_do_sys_open, .-pre_do_sys_open
	.align 16
	.globl	do_sys_open
	.type	do_sys_open, @function
do_sys_open:
.LFB174:
	.cfi_startproc
	push	r12	#
	.cfi_def_cfa_offset 16
	.cfi_offset 12, -16
	push	r11	#
	.cfi_def_cfa_offset 24
	.cfi_offset 11, -24
	push	r10	#
	.cfi_def_cfa_offset 32
	.cfi_offset 10, -32
	push	r9	#
	.cfi_def_cfa_offset 40
	.cfi_offset 9, -40
	push	r8	#
	.cfi_def_cfa_offset 48
	.cfi_offset 8, -48
	push	rdi	#
	.cfi_def_cfa_offset 56
	.cfi_offset 5, -56
	push	rax	#
	.cfi_def_cfa_offset 64
	.cfi_offset 0, -64
# handlers.c:2078:     long save_rax = __read_reg("rax");
#APP
# 2078 "handlers.c" 1
	mov r12, rax	# val
	
# 0 "" 2
# handlers.c:2079:     vmcall_5(det_do_sys_open, current_task, save_filename, save_mode,save_flags,save_rax);
#NO_APP
	mov	r8d, DWORD PTR hypercall_info[rip+11232]	# hypercall_info.OsSpecificFields.CurrentTaskOffset, hypercall_info.OsSpecificFields.CurrentTaskOffset
#APP
# 2079 "handlers.c" 1
	mov r8, gs:[r8]	# ret, hypercall_info.OsSpecificFields.CurrentTaskOffset
# 0 "" 2
#NO_APP
	mov	r9, QWORD PTR 72[rsp]	# __p2, save_filename
	mov	r10, QWORD PTR 88[rsp]	# __p3, save_mode
	movsx	r11, DWORD PTR 80[rsp]	# __p4, save_flags
	mov	edi, 100	#,
	call	vmcall	#
# handlers.c:2080: }
	pop	rax	#
	.cfi_def_cfa_offset 56
	pop	rdi	#
	.cfi_def_cfa_offset 48
	pop	r8	#
	.cfi_def_cfa_offset 40
	pop	r9	#
	.cfi_def_cfa_offset 32
	pop	r10	#
	.cfi_def_cfa_offset 24
	pop	r11	#
	.cfi_def_cfa_offset 16
	pop	r12	#
	.cfi_def_cfa_offset 8
	ret
	.cfi_endproc
.LFE174:
	.size	do_sys_open, .-do_sys_open
	.align 16
	.globl	pre_sys_accept
	.type	pre_sys_accept, @function
pre_sys_accept:
.LFB175:
	.cfi_startproc
	push	rdi	#
	.cfi_def_cfa_offset 16
	.cfi_offset 5, -16
	push	rsi	#
	.cfi_def_cfa_offset 24
	.cfi_offset 4, -24
	push	rdx	#
	.cfi_def_cfa_offset 32
	.cfi_offset 1, -32
	push	rax	#
	.cfi_def_cfa_offset 40
	.cfi_offset 0, -40
# handlers.c:2086:     *skip_call=0;
	mov	rax, QWORD PTR 40[rsp]	# skip_call, skip_call
	mov	QWORD PTR [rax], 0	# *skip_call_2(D),
# handlers.c:2087:     *save_fd=fd;
	mov	rax, QWORD PTR 48[rsp]	# save_fd, save_fd
	mov	DWORD PTR [rax], edi	# *save_fd_4(D), fd
# handlers.c:2088:     *save_upeer_sockaddr=upeer_sockaddr;
	mov	rax, QWORD PTR 56[rsp]	# save_upeer_sockaddr, save_upeer_sockaddr
	mov	QWORD PTR [rax], rsi	# *save_upeer_sockaddr_7(D), upeer_sockaddr
# handlers.c:2089:     *save_upeer_addrlen=upeer_addrlen;
	mov	rax, QWORD PTR 64[rsp]	# save_upeer_addrlen, save_upeer_addrlen
	mov	QWORD PTR [rax], rdx	# *save_upeer_addrlen_10(D), upeer_addrlen
# handlers.c:2090: }
	pop	rax	#
	.cfi_def_cfa_offset 32
	pop	rdx	#
	.cfi_def_cfa_offset 24
	pop	rsi	#
	.cfi_def_cfa_offset 16
	pop	rdi	#
	.cfi_def_cfa_offset 8
	ret
	.cfi_endproc
.LFE175:
	.size	pre_sys_accept, .-pre_sys_accept
	.align 16
	.globl	sys_accept
	.type	sys_accept, @function
sys_accept:
.LFB176:
	.cfi_startproc
	push	r12	#
	.cfi_def_cfa_offset 16
	.cfi_offset 12, -16
	push	r11	#
	.cfi_def_cfa_offset 24
	.cfi_offset 11, -24
	push	r10	#
	.cfi_def_cfa_offset 32
	.cfi_offset 10, -32
	push	r9	#
	.cfi_def_cfa_offset 40
	.cfi_offset 9, -40
	push	r8	#
	.cfi_def_cfa_offset 48
	.cfi_offset 8, -48
	push	rdi	#
	.cfi_def_cfa_offset 56
	.cfi_offset 5, -56
	push	rax	#
	.cfi_def_cfa_offset 64
	.cfi_offset 0, -64
# handlers.c:2096:     long save_rax = __read_reg("rax");
#APP
# 2096 "handlers.c" 1
	mov r12, rax	# val
	
# 0 "" 2
# handlers.c:2097:     vmcall_5(det_sys_accept, current_task, save_fd,save_upeer_sockaddr,save_upeer_addrlen,save_rax);
#NO_APP
	mov	r8d, DWORD PTR hypercall_info[rip+11232]	# hypercall_info.OsSpecificFields.CurrentTaskOffset, hypercall_info.OsSpecificFields.CurrentTaskOffset
#APP
# 2097 "handlers.c" 1
	mov r8, gs:[r8]	# ret, hypercall_info.OsSpecificFields.CurrentTaskOffset
# 0 "" 2
#NO_APP
	movsx	r9, DWORD PTR 72[rsp]	# __p2, save_fd
	mov	r10, QWORD PTR 80[rsp]	# __p3, save_upeer_sockaddr
	mov	r11, QWORD PTR 88[rsp]	# __p4, save_upeer_addrlen
	mov	edi, 101	#,
	call	vmcall	#
# handlers.c:2098: }
	pop	rax	#
	.cfi_def_cfa_offset 56
	pop	rdi	#
	.cfi_def_cfa_offset 48
	pop	r8	#
	.cfi_def_cfa_offset 40
	pop	r9	#
	.cfi_def_cfa_offset 32
	pop	r10	#
	.cfi_def_cfa_offset 24
	pop	r11	#
	.cfi_def_cfa_offset 16
	pop	r12	#
	.cfi_def_cfa_offset 8
	ret
	.cfi_endproc
.LFE176:
	.size	sys_accept, .-sys_accept
	.align 16
	.globl	pre_sys_accept4
	.type	pre_sys_accept4, @function
pre_sys_accept4:
.LFB177:
	.cfi_startproc
	push	rdi	#
	.cfi_def_cfa_offset 16
	.cfi_offset 5, -16
	push	rsi	#
	.cfi_def_cfa_offset 24
	.cfi_offset 4, -24
	push	rcx	#
	.cfi_def_cfa_offset 32
	.cfi_offset 2, -32
	push	rdx	#
	.cfi_def_cfa_offset 40
	.cfi_offset 1, -40
	push	rax	#
	.cfi_def_cfa_offset 48
	.cfi_offset 0, -48
# handlers.c:2104:     *skip_call=0;
	mov	rax, QWORD PTR 48[rsp]	# skip_call, skip_call
	mov	QWORD PTR [rax], 0	# *skip_call_2(D),
# handlers.c:2105:     *save_fd=fd;
	mov	rax, QWORD PTR 56[rsp]	# save_fd, save_fd
	mov	DWORD PTR [rax], edi	# *save_fd_4(D), fd
# handlers.c:2106:     *save_upeer_sockaddr=upeer_sockaddr;
	mov	rax, QWORD PTR 64[rsp]	# save_upeer_sockaddr, save_upeer_sockaddr
	mov	QWORD PTR [rax], rsi	# *save_upeer_sockaddr_7(D), upeer_sockaddr
# handlers.c:2107:     *save_upeer_addrlen=upeer_addrlen;
	mov	rax, QWORD PTR 72[rsp]	# save_upeer_addrlen, save_upeer_addrlen
	mov	QWORD PTR [rax], rdx	# *save_upeer_addrlen_10(D), upeer_addrlen
# handlers.c:2108:     *save_flags=flags;
	mov	rax, QWORD PTR 80[rsp]	# save_flags, save_flags
	mov	DWORD PTR [rax], ecx	# *save_flags_13(D), flags
# handlers.c:2109: }
	pop	rax	#
	.cfi_def_cfa_offset 40
	pop	rdx	#
	.cfi_def_cfa_offset 32
	pop	rcx	#
	.cfi_def_cfa_offset 24
	pop	rsi	#
	.cfi_def_cfa_offset 16
	pop	rdi	#
	.cfi_def_cfa_offset 8
	ret
	.cfi_endproc
.LFE177:
	.size	pre_sys_accept4, .-pre_sys_accept4
	.align 16
	.globl	sys_accept4
	.type	sys_accept4, @function
sys_accept4:
.LFB178:
	.cfi_startproc
	push	r13	#
	.cfi_def_cfa_offset 16
	.cfi_offset 13, -16
	push	r12	#
	.cfi_def_cfa_offset 24
	.cfi_offset 12, -24
	push	r11	#
	.cfi_def_cfa_offset 32
	.cfi_offset 11, -32
	push	r10	#
	.cfi_def_cfa_offset 40
	.cfi_offset 10, -40
	push	r9	#
	.cfi_def_cfa_offset 48
	.cfi_offset 9, -48
	push	r8	#
	.cfi_def_cfa_offset 56
	.cfi_offset 8, -56
	push	rdi	#
	.cfi_def_cfa_offset 64
	.cfi_offset 5, -64
	push	rax	#
	.cfi_def_cfa_offset 72
	.cfi_offset 0, -72
# handlers.c:2115:     long save_rax = __read_reg("rax");
#APP
# 2115 "handlers.c" 1
	mov r13, rax	# val
	
# 0 "" 2
# handlers.c:2116:     vmcall_6(det_sys_accept4, current_task, save_fd,save_upeer_sockaddr,save_upeer_addrlen,save_flags,save_rax);
#NO_APP
	mov	r8d, DWORD PTR hypercall_info[rip+11232]	# hypercall_info.OsSpecificFields.CurrentTaskOffset, hypercall_info.OsSpecificFields.CurrentTaskOffset
#APP
# 2116 "handlers.c" 1
	mov r8, gs:[r8]	# ret, hypercall_info.OsSpecificFields.CurrentTaskOffset
# 0 "" 2
#NO_APP
	movsx	r9, DWORD PTR 80[rsp]	# __p2, save_fd
	mov	r10, QWORD PTR 88[rsp]	# __p3, save_upeer_sockaddr
	mov	r11, QWORD PTR 96[rsp]	# __p4, save_upeer_addrlen
	movsx	r12, DWORD PTR 104[rsp]	# __p5, save_flags
	mov	edi, 102	#,
	call	vmcall	#
# handlers.c:2117: }
	pop	rax	#
	.cfi_def_cfa_offset 64
	pop	rdi	#
	.cfi_def_cfa_offset 56
	pop	r8	#
	.cfi_def_cfa_offset 48
	pop	r9	#
	.cfi_def_cfa_offset 40
	pop	r10	#
	.cfi_def_cfa_offset 32
	pop	r11	#
	.cfi_def_cfa_offset 24
	pop	r12	#
	.cfi_def_cfa_offset 16
	pop	r13	#
	.cfi_def_cfa_offset 8
	ret
	.cfi_endproc
.LFE178:
	.size	sys_accept4, .-sys_accept4
	.align 16
	.globl	pre_sys_bind
	.type	pre_sys_bind, @function
pre_sys_bind:
.LFB179:
	.cfi_startproc
	push	rdi	#
	.cfi_def_cfa_offset 16
	.cfi_offset 5, -16
	push	rsi	#
	.cfi_def_cfa_offset 24
	.cfi_offset 4, -24
	push	rdx	#
	.cfi_def_cfa_offset 32
	.cfi_offset 1, -32
	push	rax	#
	.cfi_def_cfa_offset 40
	.cfi_offset 0, -40
# handlers.c:2123:     *skip_call=0;
	mov	rax, QWORD PTR 40[rsp]	# skip_call, skip_call
	mov	QWORD PTR [rax], 0	# *skip_call_2(D),
# handlers.c:2124:     *save_fd=fd;
	mov	rax, QWORD PTR 48[rsp]	# save_fd, save_fd
	mov	DWORD PTR [rax], edi	# *save_fd_4(D), fd
# handlers.c:2125:     *save_umyaddr=umyaddr;
	mov	rax, QWORD PTR 56[rsp]	# save_umyaddr, save_umyaddr
	mov	QWORD PTR [rax], rsi	# *save_umyaddr_7(D), umyaddr
# handlers.c:2126:     *save_addrlen=addrlen;
	mov	rax, QWORD PTR 64[rsp]	# save_addrlen, save_addrlen
	mov	DWORD PTR [rax], edx	# *save_addrlen_10(D), addrlen
# handlers.c:2127: }
	pop	rax	#
	.cfi_def_cfa_offset 32
	pop	rdx	#
	.cfi_def_cfa_offset 24
	pop	rsi	#
	.cfi_def_cfa_offset 16
	pop	rdi	#
	.cfi_def_cfa_offset 8
	ret
	.cfi_endproc
.LFE179:
	.size	pre_sys_bind, .-pre_sys_bind
	.align 16
	.globl	sys_bind
	.type	sys_bind, @function
sys_bind:
.LFB180:
	.cfi_startproc
	push	r12	#
	.cfi_def_cfa_offset 16
	.cfi_offset 12, -16
	push	r11	#
	.cfi_def_cfa_offset 24
	.cfi_offset 11, -24
	push	r10	#
	.cfi_def_cfa_offset 32
	.cfi_offset 10, -32
	push	r9	#
	.cfi_def_cfa_offset 40
	.cfi_offset 9, -40
	push	r8	#
	.cfi_def_cfa_offset 48
	.cfi_offset 8, -48
	push	rdi	#
	.cfi_def_cfa_offset 56
	.cfi_offset 5, -56
	push	rax	#
	.cfi_def_cfa_offset 64
	.cfi_offset 0, -64
# handlers.c:2133:     long save_rax = __read_reg("rax");
#APP
# 2133 "handlers.c" 1
	mov r12, rax	# val
	
# 0 "" 2
# handlers.c:2134:     vmcall_5(det_sys_bind, current_task, save_fd,save_umyaddr,save_addrlen,save_rax);
#NO_APP
	mov	r8d, DWORD PTR hypercall_info[rip+11232]	# hypercall_info.OsSpecificFields.CurrentTaskOffset, hypercall_info.OsSpecificFields.CurrentTaskOffset
#APP
# 2134 "handlers.c" 1
	mov r8, gs:[r8]	# ret, hypercall_info.OsSpecificFields.CurrentTaskOffset
# 0 "" 2
#NO_APP
	movsx	r9, DWORD PTR 72[rsp]	# __p2, save_fd
	mov	r10, QWORD PTR 80[rsp]	# __p3, save_umyaddr
	movsx	r11, DWORD PTR 88[rsp]	# __p4, save_addrlen
	mov	edi, 103	#,
	call	vmcall	#
# handlers.c:2135: }
	pop	rax	#
	.cfi_def_cfa_offset 56
	pop	rdi	#
	.cfi_def_cfa_offset 48
	pop	r8	#
	.cfi_def_cfa_offset 40
	pop	r9	#
	.cfi_def_cfa_offset 32
	pop	r10	#
	.cfi_def_cfa_offset 24
	pop	r11	#
	.cfi_def_cfa_offset 16
	pop	r12	#
	.cfi_def_cfa_offset 8
	ret
	.cfi_endproc
.LFE180:
	.size	sys_bind, .-sys_bind
	.align 16
	.globl	pre_sys_connect
	.type	pre_sys_connect, @function
pre_sys_connect:
.LFB218:
	.cfi_startproc
	push	rdi	#
	.cfi_def_cfa_offset 16
	.cfi_offset 5, -16
	push	rsi	#
	.cfi_def_cfa_offset 24
	.cfi_offset 4, -24
	push	rdx	#
	.cfi_def_cfa_offset 32
	.cfi_offset 1, -32
	push	rax	#
	.cfi_def_cfa_offset 40
	.cfi_offset 0, -40
	mov	rax, QWORD PTR 40[rsp]	# skip_call, skip_call
	mov	QWORD PTR [rax], 0	# *skip_call_8(D),
	mov	rax, QWORD PTR 48[rsp]	# save_fd, save_fd
	mov	DWORD PTR [rax], edi	# *save_fd_9(D), fd
	mov	rax, QWORD PTR 56[rsp]	# save_uservaddr, save_uservaddr
	mov	QWORD PTR [rax], rsi	# *save_uservaddr_10(D), uservaddr
	mov	rax, QWORD PTR 64[rsp]	# save_addrlen, save_addrlen
	mov	DWORD PTR [rax], edx	# *save_addrlen_11(D), addrlen
	pop	rax	#
	.cfi_def_cfa_offset 32
	pop	rdx	#
	.cfi_def_cfa_offset 24
	pop	rsi	#
	.cfi_def_cfa_offset 16
	pop	rdi	#
	.cfi_def_cfa_offset 8
	ret
	.cfi_endproc
.LFE218:
	.size	pre_sys_connect, .-pre_sys_connect
	.align 16
	.globl	sys_connect
	.type	sys_connect, @function
sys_connect:
.LFB182:
	.cfi_startproc
# handlers.c:2150: {
	push	r12	#
	.cfi_def_cfa_offset 16
	.cfi_offset 12, -16
	push	r11	#
	.cfi_def_cfa_offset 24
	.cfi_offset 11, -24
	push	r10	#
	.cfi_def_cfa_offset 32
	.cfi_offset 10, -32
	push	r9	#
	.cfi_def_cfa_offset 40
	.cfi_offset 9, -40
	push	r8	#
	.cfi_def_cfa_offset 48
	.cfi_offset 8, -48
	push	rdi	#
	.cfi_def_cfa_offset 56
	.cfi_offset 5, -56
	push	rax	#
	.cfi_def_cfa_offset 64
	.cfi_offset 0, -64
# handlers.c:2151:     long save_rax = __read_reg("rax");
#APP
# 2151 "handlers.c" 1
	mov r12, rax	# val
	
# 0 "" 2
# handlers.c:2152:     vmcall_5(det_sys_connect, current_task, save_fd,save_uservaddr,save_addrlen,save_rax);
#NO_APP
	mov	r8d, DWORD PTR hypercall_info[rip+11232]	# hypercall_info.OsSpecificFields.CurrentTaskOffset, hypercall_info.OsSpecificFields.CurrentTaskOffset
#APP
# 2152 "handlers.c" 1
	mov r8, gs:[r8]	# ret, hypercall_info.OsSpecificFields.CurrentTaskOffset
# 0 "" 2
#NO_APP
	movsx	r9, DWORD PTR 72[rsp]	# __p2, save_fd
	mov	r10, QWORD PTR 80[rsp]	# __p3, save_uservaddr
	movsx	r11, DWORD PTR 88[rsp]	# __p4, save_addrlen
	mov	edi, 104	#,
	call	vmcall	#
# handlers.c:2153: }
	pop	rax	#
	.cfi_def_cfa_offset 56
	pop	rdi	#
	.cfi_def_cfa_offset 48
	pop	r8	#
	.cfi_def_cfa_offset 40
	pop	r9	#
	.cfi_def_cfa_offset 32
	pop	r10	#
	.cfi_def_cfa_offset 24
	pop	r11	#
	.cfi_def_cfa_offset 16
	pop	r12	#
	.cfi_def_cfa_offset 8
	ret
	.cfi_endproc
.LFE182:
	.size	sys_connect, .-sys_connect
	.align 16
	.globl	pre_sys_sendto
	.type	pre_sys_sendto, @function
pre_sys_sendto:
.LFB183:
	.cfi_startproc
	push	r9	#
	.cfi_def_cfa_offset 16
	.cfi_offset 9, -16
	push	r8	#
	.cfi_def_cfa_offset 24
	.cfi_offset 8, -24
	push	rdi	#
	.cfi_def_cfa_offset 32
	.cfi_offset 5, -32
	push	rsi	#
	.cfi_def_cfa_offset 40
	.cfi_offset 4, -40
	push	rcx	#
	.cfi_def_cfa_offset 48
	.cfi_offset 2, -48
	push	rdx	#
	.cfi_def_cfa_offset 56
	.cfi_offset 1, -56
	push	rax	#
	.cfi_def_cfa_offset 64
	.cfi_offset 0, -64
# handlers.c:2161:     *skip_call=0;
	mov	rax, QWORD PTR 64[rsp]	# skip_call, skip_call
	mov	QWORD PTR [rax], 0	# *skip_call_2(D),
# handlers.c:2162:     *save_fd=fd;
	mov	rax, QWORD PTR 72[rsp]	# save_fd, save_fd
	mov	DWORD PTR [rax], edi	# *save_fd_4(D), fd
# handlers.c:2163:     *save_buff=buff;
	mov	rax, QWORD PTR 80[rsp]	# save_buff, save_buff
	mov	QWORD PTR [rax], rsi	# *save_buff_7(D), buff
# handlers.c:2164:     *save_len=len;
	mov	rax, QWORD PTR 88[rsp]	# save_len, save_len
	mov	QWORD PTR [rax], rdx	# *save_len_10(D), len
# handlers.c:2165:     *save_flags=flags;
	mov	rax, QWORD PTR 96[rsp]	# save_flags, save_flags
	mov	DWORD PTR [rax], ecx	# *save_flags_13(D), flags
# handlers.c:2166:     *save_addr=addr;
	mov	rax, QWORD PTR 104[rsp]	# save_addr, save_addr
	mov	QWORD PTR [rax], r8	# *save_addr_16(D), addr
# handlers.c:2167:     *save_addr_len=addr_len;
	mov	rax, QWORD PTR 112[rsp]	# save_addr_len, save_addr_len
	mov	DWORD PTR [rax], r9d	# *save_addr_len_19(D), addr_len
# handlers.c:2168: }
	pop	rax	#
	.cfi_def_cfa_offset 56
	pop	rdx	#
	.cfi_def_cfa_offset 48
	pop	rcx	#
	.cfi_def_cfa_offset 40
	pop	rsi	#
	.cfi_def_cfa_offset 32
	pop	rdi	#
	.cfi_def_cfa_offset 24
	pop	r8	#
	.cfi_def_cfa_offset 16
	pop	r9	#
	.cfi_def_cfa_offset 8
	ret
	.cfi_endproc
.LFE183:
	.size	pre_sys_sendto, .-pre_sys_sendto
	.align 16
	.globl	sys_sendto
	.type	sys_sendto, @function
sys_sendto:
.LFB184:
	.cfi_startproc
	push	r15	#
	.cfi_def_cfa_offset 16
	.cfi_offset 15, -16
	push	r14	#
	.cfi_def_cfa_offset 24
	.cfi_offset 14, -24
	push	r13	#
	.cfi_def_cfa_offset 32
	.cfi_offset 13, -32
	push	r12	#
	.cfi_def_cfa_offset 40
	.cfi_offset 12, -40
	push	r11	#
	.cfi_def_cfa_offset 48
	.cfi_offset 11, -48
	push	r10	#
	.cfi_def_cfa_offset 56
	.cfi_offset 10, -56
	push	r9	#
	.cfi_def_cfa_offset 64
	.cfi_offset 9, -64
	push	r8	#
	.cfi_def_cfa_offset 72
	.cfi_offset 8, -72
	push	rdi	#
	.cfi_def_cfa_offset 80
	.cfi_offset 5, -80
	push	rax	#
	.cfi_def_cfa_offset 88
	.cfi_offset 0, -88
# handlers.c:2176:     long save_rax = __read_reg("rax");
#APP
# 2176 "handlers.c" 1
	mov r15, rax	# val
	
# 0 "" 2
# handlers.c:2177:     vmcall_8(det_sys_sendto, current_task, save_fd,save_buff,save_len,save_flags,save_addr,save_addr_len,save_rax);
#NO_APP
	mov	r8d, DWORD PTR hypercall_info[rip+11232]	# hypercall_info.OsSpecificFields.CurrentTaskOffset, hypercall_info.OsSpecificFields.CurrentTaskOffset
#APP
# 2177 "handlers.c" 1
	mov r8, gs:[r8]	# ret, hypercall_info.OsSpecificFields.CurrentTaskOffset
# 0 "" 2
#NO_APP
	movsx	r9, DWORD PTR 96[rsp]	# __p2, save_fd
	mov	r10, QWORD PTR 104[rsp]	# __p3, save_buff
	mov	r11, QWORD PTR 112[rsp]	# __p4, save_len
	mov	r12d, DWORD PTR 120[rsp]	# __p5, save_flags
	mov	r13, QWORD PTR 128[rsp]	# __p6, save_addr
	movsx	r14, DWORD PTR 136[rsp]	# __p7, save_addr_len
	mov	edi, 105	#,
	call	vmcall	#
# handlers.c:2178: }
	pop	rax	#
	.cfi_def_cfa_offset 80
	pop	rdi	#
	.cfi_def_cfa_offset 72
	pop	r8	#
	.cfi_def_cfa_offset 64
	pop	r9	#
	.cfi_def_cfa_offset 56
	pop	r10	#
	.cfi_def_cfa_offset 48
	pop	r11	#
	.cfi_def_cfa_offset 40
	pop	r12	#
	.cfi_def_cfa_offset 32
	pop	r13	#
	.cfi_def_cfa_offset 24
	pop	r14	#
	.cfi_def_cfa_offset 16
	pop	r15	#
	.cfi_def_cfa_offset 8
	ret
	.cfi_endproc
.LFE184:
	.size	sys_sendto, .-sys_sendto
	.align 16
	.globl	pre_sys_sendmsg
	.type	pre_sys_sendmsg, @function
pre_sys_sendmsg:
.LFB185:
	.cfi_startproc
	push	rdi	#
	.cfi_def_cfa_offset 16
	.cfi_offset 5, -16
	push	rsi	#
	.cfi_def_cfa_offset 24
	.cfi_offset 4, -24
	push	rdx	#
	.cfi_def_cfa_offset 32
	.cfi_offset 1, -32
	push	rax	#
	.cfi_def_cfa_offset 40
	.cfi_offset 0, -40
# handlers.c:2185:     *skip_call=0;
	mov	rax, QWORD PTR 40[rsp]	# skip_call, skip_call
	mov	QWORD PTR [rax], 0	# *skip_call_2(D),
# handlers.c:2186:     *save_fd=fd;
	mov	rax, QWORD PTR 48[rsp]	# save_fd, save_fd
	mov	DWORD PTR [rax], edi	# *save_fd_4(D), fd
# handlers.c:2187:     *save_msg=msg;
	mov	rax, QWORD PTR 56[rsp]	# save_msg, save_msg
	mov	QWORD PTR [rax], rsi	# *save_msg_7(D), msg
# handlers.c:2188:     *save_flags=flags;
	mov	rax, QWORD PTR 64[rsp]	# save_flags, save_flags
	mov	DWORD PTR [rax], edx	# *save_flags_10(D), flags
# handlers.c:2189: }
	pop	rax	#
	.cfi_def_cfa_offset 32
	pop	rdx	#
	.cfi_def_cfa_offset 24
	pop	rsi	#
	.cfi_def_cfa_offset 16
	pop	rdi	#
	.cfi_def_cfa_offset 8
	ret
	.cfi_endproc
.LFE185:
	.size	pre_sys_sendmsg, .-pre_sys_sendmsg
	.align 16
	.globl	sys_sendmsg
	.type	sys_sendmsg, @function
sys_sendmsg:
.LFB186:
	.cfi_startproc
	push	r12	#
	.cfi_def_cfa_offset 16
	.cfi_offset 12, -16
	push	r11	#
	.cfi_def_cfa_offset 24
	.cfi_offset 11, -24
	push	r10	#
	.cfi_def_cfa_offset 32
	.cfi_offset 10, -32
	push	r9	#
	.cfi_def_cfa_offset 40
	.cfi_offset 9, -40
	push	r8	#
	.cfi_def_cfa_offset 48
	.cfi_offset 8, -48
	push	rdi	#
	.cfi_def_cfa_offset 56
	.cfi_offset 5, -56
	push	rax	#
	.cfi_def_cfa_offset 64
	.cfi_offset 0, -64
# handlers.c:2196:     long save_rax = __read_reg("rax");
#APP
# 2196 "handlers.c" 1
	mov r12, rax	# val
	
# 0 "" 2
# handlers.c:2197:     vmcall_5(det_sys_sendmsg, current_task, save_fd,save_msg,save_flags,save_rax);
#NO_APP
	mov	r8d, DWORD PTR hypercall_info[rip+11232]	# hypercall_info.OsSpecificFields.CurrentTaskOffset, hypercall_info.OsSpecificFields.CurrentTaskOffset
#APP
# 2197 "handlers.c" 1
	mov r8, gs:[r8]	# ret, hypercall_info.OsSpecificFields.CurrentTaskOffset
# 0 "" 2
#NO_APP
	movsx	r9, DWORD PTR 72[rsp]	# __p2, save_fd
	mov	r10, QWORD PTR 80[rsp]	# __p3, save_msg
	mov	r11d, DWORD PTR 88[rsp]	# __p4, save_flags
	mov	edi, 106	#,
	call	vmcall	#
# handlers.c:2198: }
	pop	rax	#
	.cfi_def_cfa_offset 56
	pop	rdi	#
	.cfi_def_cfa_offset 48
	pop	r8	#
	.cfi_def_cfa_offset 40
	pop	r9	#
	.cfi_def_cfa_offset 32
	pop	r10	#
	.cfi_def_cfa_offset 24
	pop	r11	#
	.cfi_def_cfa_offset 16
	pop	r12	#
	.cfi_def_cfa_offset 8
	ret
	.cfi_endproc
.LFE186:
	.size	sys_sendmsg, .-sys_sendmsg
	.align 16
	.globl	pre_sys_recvfrom
	.type	pre_sys_recvfrom, @function
pre_sys_recvfrom:
.LFB187:
	.cfi_startproc
	push	r9	#
	.cfi_def_cfa_offset 16
	.cfi_offset 9, -16
# handlers.c:2212:     *save_addr_len=addr_len;
	movsx	r9, r9d	# addr_len, addr_len
# handlers.c:2205: {
	push	r8	#
	.cfi_def_cfa_offset 24
	.cfi_offset 8, -24
	push	rdi	#
	.cfi_def_cfa_offset 32
	.cfi_offset 5, -32
	push	rsi	#
	.cfi_def_cfa_offset 40
	.cfi_offset 4, -40
	push	rcx	#
	.cfi_def_cfa_offset 48
	.cfi_offset 2, -48
	push	rdx	#
	.cfi_def_cfa_offset 56
	.cfi_offset 1, -56
	push	rax	#
	.cfi_def_cfa_offset 64
	.cfi_offset 0, -64
# handlers.c:2206:     *skip_call=0;
	mov	rax, QWORD PTR 64[rsp]	# skip_call, skip_call
	mov	QWORD PTR [rax], 0	# *skip_call_4(D),
# handlers.c:2207:     *save_fd=fd;
	mov	rax, QWORD PTR 72[rsp]	# save_fd, save_fd
	mov	DWORD PTR [rax], edi	# *save_fd_6(D), fd
# handlers.c:2208:     *save_ubuf=ubuf;
	mov	rax, QWORD PTR 80[rsp]	# save_ubuf, save_ubuf
	mov	QWORD PTR [rax], rsi	# *save_ubuf_9(D), ubuf
# handlers.c:2209:     *save_size=size;
	mov	rax, QWORD PTR 88[rsp]	# save_size, save_size
	mov	QWORD PTR [rax], rdx	# *save_size_12(D), size
# handlers.c:2210:     *save_flags=flags;
	mov	rax, QWORD PTR 96[rsp]	# save_flags, save_flags
	mov	DWORD PTR [rax], ecx	# *save_flags_15(D), flags
# handlers.c:2211:     *save_addr=addr;
	mov	rax, QWORD PTR 104[rsp]	# save_addr, save_addr
	mov	QWORD PTR [rax], r8	# *save_addr_18(D), addr
# handlers.c:2212:     *save_addr_len=addr_len;
	mov	rax, QWORD PTR 112[rsp]	# save_addr_len, save_addr_len
	mov	QWORD PTR [rax], r9	# *save_addr_len_22(D), addr_len
# handlers.c:2213: }
	pop	rax	#
	.cfi_def_cfa_offset 56
	pop	rdx	#
	.cfi_def_cfa_offset 48
	pop	rcx	#
	.cfi_def_cfa_offset 40
	pop	rsi	#
	.cfi_def_cfa_offset 32
	pop	rdi	#
	.cfi_def_cfa_offset 24
	pop	r8	#
	.cfi_def_cfa_offset 16
	pop	r9	#
	.cfi_def_cfa_offset 8
	ret
	.cfi_endproc
.LFE187:
	.size	pre_sys_recvfrom, .-pre_sys_recvfrom
	.align 16
	.globl	sys_recvfrom
	.type	sys_recvfrom, @function
sys_recvfrom:
.LFB188:
	.cfi_startproc
	push	r15	#
	.cfi_def_cfa_offset 16
	.cfi_offset 15, -16
	push	r14	#
	.cfi_def_cfa_offset 24
	.cfi_offset 14, -24
	push	r13	#
	.cfi_def_cfa_offset 32
	.cfi_offset 13, -32
	push	r12	#
	.cfi_def_cfa_offset 40
	.cfi_offset 12, -40
	push	r11	#
	.cfi_def_cfa_offset 48
	.cfi_offset 11, -48
	push	r10	#
	.cfi_def_cfa_offset 56
	.cfi_offset 10, -56
	push	r9	#
	.cfi_def_cfa_offset 64
	.cfi_offset 9, -64
	push	r8	#
	.cfi_def_cfa_offset 72
	.cfi_offset 8, -72
	push	rdi	#
	.cfi_def_cfa_offset 80
	.cfi_offset 5, -80
	push	rax	#
	.cfi_def_cfa_offset 88
	.cfi_offset 0, -88
# handlers.c:2221:     long save_rax = __read_reg("rax");
#APP
# 2221 "handlers.c" 1
	mov r15, rax	# val
	
# 0 "" 2
# handlers.c:2222:     vmcall_8(det_sys_recvfrom, current_task, save_fd,save_ubuf,save_size,save_flags,save_addr,save_addr_len,save_rax);
#NO_APP
	mov	r8d, DWORD PTR hypercall_info[rip+11232]	# hypercall_info.OsSpecificFields.CurrentTaskOffset, hypercall_info.OsSpecificFields.CurrentTaskOffset
#APP
# 2222 "handlers.c" 1
	mov r8, gs:[r8]	# ret, hypercall_info.OsSpecificFields.CurrentTaskOffset
# 0 "" 2
#NO_APP
	movsx	r9, DWORD PTR 96[rsp]	# __p2, save_fd
	mov	r10, QWORD PTR 104[rsp]	# __p3, save_ubuf
	mov	r11, QWORD PTR 112[rsp]	# __p4, save_size
	mov	r12d, DWORD PTR 120[rsp]	# __p5, save_flags
	mov	r13, QWORD PTR 128[rsp]	# __p6, save_addr
	mov	r14, QWORD PTR 136[rsp]	# __p7, save_addr_len
	mov	edi, 107	#,
	call	vmcall	#
# handlers.c:2223: }
	pop	rax	#
	.cfi_def_cfa_offset 80
	pop	rdi	#
	.cfi_def_cfa_offset 72
	pop	r8	#
	.cfi_def_cfa_offset 64
	pop	r9	#
	.cfi_def_cfa_offset 56
	pop	r10	#
	.cfi_def_cfa_offset 48
	pop	r11	#
	.cfi_def_cfa_offset 40
	pop	r12	#
	.cfi_def_cfa_offset 32
	pop	r13	#
	.cfi_def_cfa_offset 24
	pop	r14	#
	.cfi_def_cfa_offset 16
	pop	r15	#
	.cfi_def_cfa_offset 8
	ret
	.cfi_endproc
.LFE188:
	.size	sys_recvfrom, .-sys_recvfrom
	.align 16
	.globl	pre_sys_recvmsg
	.type	pre_sys_recvmsg, @function
pre_sys_recvmsg:
.LFB220:
	.cfi_startproc
	push	rdi	#
	.cfi_def_cfa_offset 16
	.cfi_offset 5, -16
	push	rsi	#
	.cfi_def_cfa_offset 24
	.cfi_offset 4, -24
	push	rdx	#
	.cfi_def_cfa_offset 32
	.cfi_offset 1, -32
	push	rax	#
	.cfi_def_cfa_offset 40
	.cfi_offset 0, -40
	mov	rax, QWORD PTR 40[rsp]	# skip_call, skip_call
	mov	QWORD PTR [rax], 0	# *skip_call_8(D),
	mov	rax, QWORD PTR 48[rsp]	# save_fd, save_fd
	mov	DWORD PTR [rax], edi	# *save_fd_9(D), fd
	mov	rax, QWORD PTR 56[rsp]	# save_msg, save_msg
	mov	QWORD PTR [rax], rsi	# *save_msg_10(D), msg
	mov	rax, QWORD PTR 64[rsp]	# save_flags, save_flags
	mov	DWORD PTR [rax], edx	# *save_flags_11(D), flags
	pop	rax	#
	.cfi_def_cfa_offset 32
	pop	rdx	#
	.cfi_def_cfa_offset 24
	pop	rsi	#
	.cfi_def_cfa_offset 16
	pop	rdi	#
	.cfi_def_cfa_offset 8
	ret
	.cfi_endproc
.LFE220:
	.size	pre_sys_recvmsg, .-pre_sys_recvmsg
	.align 16
	.globl	sys_recvmsg
	.type	sys_recvmsg, @function
sys_recvmsg:
.LFB190:
	.cfi_startproc
# handlers.c:2240: {
	push	r12	#
	.cfi_def_cfa_offset 16
	.cfi_offset 12, -16
	push	r11	#
	.cfi_def_cfa_offset 24
	.cfi_offset 11, -24
	push	r10	#
	.cfi_def_cfa_offset 32
	.cfi_offset 10, -32
	push	r9	#
	.cfi_def_cfa_offset 40
	.cfi_offset 9, -40
	push	r8	#
	.cfi_def_cfa_offset 48
	.cfi_offset 8, -48
	push	rdi	#
	.cfi_def_cfa_offset 56
	.cfi_offset 5, -56
	push	rax	#
	.cfi_def_cfa_offset 64
	.cfi_offset 0, -64
# handlers.c:2241:     long save_rax = __read_reg("rax");
#APP
# 2241 "handlers.c" 1
	mov r12, rax	# val
	
# 0 "" 2
# handlers.c:2242:     vmcall_5(det_sys_recvmsg, current_task, save_fd,save_msg,save_flags,save_rax);
#NO_APP
	mov	r8d, DWORD PTR hypercall_info[rip+11232]	# hypercall_info.OsSpecificFields.CurrentTaskOffset, hypercall_info.OsSpecificFields.CurrentTaskOffset
#APP
# 2242 "handlers.c" 1
	mov r8, gs:[r8]	# ret, hypercall_info.OsSpecificFields.CurrentTaskOffset
# 0 "" 2
#NO_APP
	movsx	r9, DWORD PTR 72[rsp]	# __p2, save_fd
	mov	r10, QWORD PTR 80[rsp]	# __p3, save_msg
	mov	r11d, DWORD PTR 88[rsp]	# __p4, save_flags
	mov	edi, 108	#,
	call	vmcall	#
# handlers.c:2243: }
	pop	rax	#
	.cfi_def_cfa_offset 56
	pop	rdi	#
	.cfi_def_cfa_offset 48
	pop	r8	#
	.cfi_def_cfa_offset 40
	pop	r9	#
	.cfi_def_cfa_offset 32
	pop	r10	#
	.cfi_def_cfa_offset 24
	pop	r11	#
	.cfi_def_cfa_offset 16
	pop	r12	#
	.cfi_def_cfa_offset 8
	ret
	.cfi_endproc
.LFE190:
	.size	sys_recvmsg, .-sys_recvmsg
	.align 16
	.globl	pre_sys_close
	.type	pre_sys_close, @function
pre_sys_close:
.LFB232:
	.cfi_startproc
	push	rdi	#
	.cfi_def_cfa_offset 16
	.cfi_offset 5, -16
	push	rax	#
	.cfi_def_cfa_offset 24
	.cfi_offset 0, -24
	mov	rax, QWORD PTR 24[rsp]	# skip_call, skip_call
	mov	QWORD PTR [rax], 0	# *skip_call_8(D),
	mov	rax, QWORD PTR 32[rsp]	# save_fd, save_fd
	mov	DWORD PTR [rax], edi	# *save_fd_9(D), fd
	pop	rax	#
	.cfi_def_cfa_offset 16
	pop	rdi	#
	.cfi_def_cfa_offset 8
	ret
	.cfi_endproc
.LFE232:
	.size	pre_sys_close, .-pre_sys_close
	.align 16
	.globl	sys_close
	.type	sys_close, @function
sys_close:
.LFB192:
	.cfi_startproc
# handlers.c:2257: {
	push	r10	#
	.cfi_def_cfa_offset 16
	.cfi_offset 10, -16
	push	r9	#
	.cfi_def_cfa_offset 24
	.cfi_offset 9, -24
	push	r8	#
	.cfi_def_cfa_offset 32
	.cfi_offset 8, -32
	push	rdi	#
	.cfi_def_cfa_offset 40
	.cfi_offset 5, -40
	push	rax	#
	.cfi_def_cfa_offset 48
	.cfi_offset 0, -48
# handlers.c:2258:     long save_rax = __read_reg("rax");
#APP
# 2258 "handlers.c" 1
	mov r10, rax	# val
	
# 0 "" 2
# handlers.c:2259:     vmcall_3(det_sys_close, current_task, save_fd,save_rax);
#NO_APP
	mov	r8d, DWORD PTR hypercall_info[rip+11232]	# hypercall_info.OsSpecificFields.CurrentTaskOffset, hypercall_info.OsSpecificFields.CurrentTaskOffset
#APP
# 2259 "handlers.c" 1
	mov r8, gs:[r8]	# ret, hypercall_info.OsSpecificFields.CurrentTaskOffset
# 0 "" 2
#NO_APP
	mov	r9d, DWORD PTR 56[rsp]	# __p2, save_fd
	mov	edi, 112	#,
	call	vmcall	#
# handlers.c:2260: }
	pop	rax	#
	.cfi_def_cfa_offset 40
	pop	rdi	#
	.cfi_def_cfa_offset 32
	pop	r8	#
	.cfi_def_cfa_offset 24
	pop	r9	#
	.cfi_def_cfa_offset 16
	pop	r10	#
	.cfi_def_cfa_offset 8
	ret
	.cfi_endproc
.LFE192:
	.size	sys_close, .-sys_close
	.align 16
	.globl	pre_sys_dup
	.type	pre_sys_dup, @function
pre_sys_dup:
.LFB234:
	.cfi_startproc
	push	rdi	#
	.cfi_def_cfa_offset 16
	.cfi_offset 5, -16
	push	rax	#
	.cfi_def_cfa_offset 24
	.cfi_offset 0, -24
	mov	rax, QWORD PTR 24[rsp]	# skip_call, skip_call
	mov	QWORD PTR [rax], 0	# *skip_call_8(D),
	mov	rax, QWORD PTR 32[rsp]	# save_fildes, save_fildes
	mov	DWORD PTR [rax], edi	# *save_fildes_9(D), fildes
	pop	rax	#
	.cfi_def_cfa_offset 16
	pop	rdi	#
	.cfi_def_cfa_offset 8
	ret
	.cfi_endproc
.LFE234:
	.size	pre_sys_dup, .-pre_sys_dup
	.align 16
	.globl	sys_dup
	.type	sys_dup, @function
sys_dup:
.LFB194:
	.cfi_startproc
# handlers.c:2275: {
	push	r10	#
	.cfi_def_cfa_offset 16
	.cfi_offset 10, -16
	push	r9	#
	.cfi_def_cfa_offset 24
	.cfi_offset 9, -24
	push	r8	#
	.cfi_def_cfa_offset 32
	.cfi_offset 8, -32
	push	rdi	#
	.cfi_def_cfa_offset 40
	.cfi_offset 5, -40
	push	rax	#
	.cfi_def_cfa_offset 48
	.cfi_offset 0, -48
# handlers.c:2276:     long save_rax = __read_reg("rax");
#APP
# 2276 "handlers.c" 1
	mov r10, rax	# val
	
# 0 "" 2
# handlers.c:2277:     vmcall_3(det_sys_dup, current_task, save_fildes,save_rax);
#NO_APP
	mov	r8d, DWORD PTR hypercall_info[rip+11232]	# hypercall_info.OsSpecificFields.CurrentTaskOffset, hypercall_info.OsSpecificFields.CurrentTaskOffset
#APP
# 2277 "handlers.c" 1
	mov r8, gs:[r8]	# ret, hypercall_info.OsSpecificFields.CurrentTaskOffset
# 0 "" 2
#NO_APP
	mov	r9d, DWORD PTR 56[rsp]	# __p2, save_fildes
	mov	edi, 109	#,
	call	vmcall	#
# handlers.c:2278: }
	pop	rax	#
	.cfi_def_cfa_offset 40
	pop	rdi	#
	.cfi_def_cfa_offset 32
	pop	r8	#
	.cfi_def_cfa_offset 24
	pop	r9	#
	.cfi_def_cfa_offset 16
	pop	r10	#
	.cfi_def_cfa_offset 8
	ret
	.cfi_endproc
.LFE194:
	.size	sys_dup, .-sys_dup
	.align 16
	.globl	pre_sys_dup2
	.type	pre_sys_dup2, @function
pre_sys_dup2:
.LFB195:
	.cfi_startproc
	push	rdi	#
	.cfi_def_cfa_offset 16
	.cfi_offset 5, -16
	push	rdx	#
	.cfi_def_cfa_offset 24
	.cfi_offset 1, -24
	push	rax	#
	.cfi_def_cfa_offset 32
	.cfi_offset 0, -32
# handlers.c:2285:     *skip_call=0;
	mov	rdx, QWORD PTR 32[rsp]	# skip_call, skip_call
# handlers.c:2284: {
	mov	rax, QWORD PTR 48[rsp]	# save_newfd, save_newfd
# handlers.c:2285:     *skip_call=0;
	mov	QWORD PTR [rdx], 0	# *skip_call_4(D),
# handlers.c:2286:     *save_oldfd=oldfd;
	mov	rdx, QWORD PTR 40[rsp]	# save_oldfd, save_oldfd
	mov	DWORD PTR [rdx], edi	# *save_oldfd_6(D), oldfd
# handlers.c:2287:     *save_newfd=save_newfd;
	mov	DWORD PTR [rax], eax	# *save_newfd_9(D), save_newfd
# handlers.c:2288: }
	pop	rax	#
	.cfi_def_cfa_offset 24
	pop	rdx	#
	.cfi_def_cfa_offset 16
	pop	rdi	#
	.cfi_def_cfa_offset 8
	ret
	.cfi_endproc
.LFE195:
	.size	pre_sys_dup2, .-pre_sys_dup2
	.align 16
	.globl	sys_dup2
	.type	sys_dup2, @function
sys_dup2:
.LFB196:
	.cfi_startproc
	push	r11	#
	.cfi_def_cfa_offset 16
	.cfi_offset 11, -16
	push	r10	#
	.cfi_def_cfa_offset 24
	.cfi_offset 10, -24
	push	r9	#
	.cfi_def_cfa_offset 32
	.cfi_offset 9, -32
	push	r8	#
	.cfi_def_cfa_offset 40
	.cfi_offset 8, -40
	push	rdi	#
	.cfi_def_cfa_offset 48
	.cfi_offset 5, -48
	push	rax	#
	.cfi_def_cfa_offset 56
	.cfi_offset 0, -56
# handlers.c:2295:     long save_rax = __read_reg("rax");
#APP
# 2295 "handlers.c" 1
	mov r11, rax	# val
	
# 0 "" 2
# handlers.c:2296:     vmcall_4(det_sys_dup2, current_task, save_oldfd,save_newfd,save_rax);
#NO_APP
	mov	r8d, DWORD PTR hypercall_info[rip+11232]	# hypercall_info.OsSpecificFields.CurrentTaskOffset, hypercall_info.OsSpecificFields.CurrentTaskOffset
#APP
# 2296 "handlers.c" 1
	mov r8, gs:[r8]	# ret, hypercall_info.OsSpecificFields.CurrentTaskOffset
# 0 "" 2
#NO_APP
	mov	r9d, DWORD PTR 64[rsp]	# __p2, save_oldfd
	mov	r10d, DWORD PTR 72[rsp]	# __p3, save_newfd
	mov	edi, 110	#,
	call	vmcall	#
# handlers.c:2297: }
	pop	rax	#
	.cfi_def_cfa_offset 48
	pop	rdi	#
	.cfi_def_cfa_offset 40
	pop	r8	#
	.cfi_def_cfa_offset 32
	pop	r9	#
	.cfi_def_cfa_offset 24
	pop	r10	#
	.cfi_def_cfa_offset 16
	pop	r11	#
	.cfi_def_cfa_offset 8
	ret
	.cfi_endproc
.LFE196:
	.size	sys_dup2, .-sys_dup2
	.align 16
	.globl	pre_sys_dup3
	.type	pre_sys_dup3, @function
pre_sys_dup3:
.LFB197:
	.cfi_startproc
	push	rdi	#
	.cfi_def_cfa_offset 16
	.cfi_offset 5, -16
	push	rsi	#
	.cfi_def_cfa_offset 24
	.cfi_offset 4, -24
	push	rdx	#
	.cfi_def_cfa_offset 32
	.cfi_offset 1, -32
	push	rax	#
	.cfi_def_cfa_offset 40
	.cfi_offset 0, -40
# handlers.c:2303:     *skip_call=0;
	mov	rsi, QWORD PTR 40[rsp]	# skip_call, skip_call
# handlers.c:2302: {
	mov	rax, QWORD PTR 56[rsp]	# save_newfd, save_newfd
# handlers.c:2303:     *skip_call=0;
	mov	QWORD PTR [rsi], 0	# *skip_call_4(D),
# handlers.c:2304:     *save_oldfd=oldfd;
	mov	rsi, QWORD PTR 48[rsp]	# save_oldfd, save_oldfd
	mov	DWORD PTR [rsi], edi	# *save_oldfd_6(D), oldfd
# handlers.c:2305:     *save_newfd=save_newfd;
	mov	DWORD PTR [rax], eax	# *save_newfd_9(D), save_newfd
# handlers.c:2306:     *save_flags=flags;
	mov	rax, QWORD PTR 64[rsp]	# save_flags, save_flags
	mov	DWORD PTR [rax], edx	# *save_flags_11(D), flags
# handlers.c:2307: }
	pop	rax	#
	.cfi_def_cfa_offset 32
	pop	rdx	#
	.cfi_def_cfa_offset 24
	pop	rsi	#
	.cfi_def_cfa_offset 16
	pop	rdi	#
	.cfi_def_cfa_offset 8
	ret
	.cfi_endproc
.LFE197:
	.size	pre_sys_dup3, .-pre_sys_dup3
	.align 16
	.globl	sys_dup3
	.type	sys_dup3, @function
sys_dup3:
.LFB198:
	.cfi_startproc
	push	r12	#
	.cfi_def_cfa_offset 16
	.cfi_offset 12, -16
	push	r11	#
	.cfi_def_cfa_offset 24
	.cfi_offset 11, -24
	push	r10	#
	.cfi_def_cfa_offset 32
	.cfi_offset 10, -32
	push	r9	#
	.cfi_def_cfa_offset 40
	.cfi_offset 9, -40
	push	r8	#
	.cfi_def_cfa_offset 48
	.cfi_offset 8, -48
	push	rdi	#
	.cfi_def_cfa_offset 56
	.cfi_offset 5, -56
	push	rax	#
	.cfi_def_cfa_offset 64
	.cfi_offset 0, -64
# handlers.c:2314:     long save_rax = __read_reg("rax");
#APP
# 2314 "handlers.c" 1
	mov r12, rax	# val
	
# 0 "" 2
# handlers.c:2315:     vmcall_5(det_sys_dup2, current_task, save_oldfd,save_newfd,save_flags,save_rax);
#NO_APP
	mov	r8d, DWORD PTR hypercall_info[rip+11232]	# hypercall_info.OsSpecificFields.CurrentTaskOffset, hypercall_info.OsSpecificFields.CurrentTaskOffset
#APP
# 2315 "handlers.c" 1
	mov r8, gs:[r8]	# ret, hypercall_info.OsSpecificFields.CurrentTaskOffset
# 0 "" 2
#NO_APP
	mov	r9d, DWORD PTR 72[rsp]	# __p2, save_oldfd
	mov	r10d, DWORD PTR 80[rsp]	# __p3, save_newfd
	movsx	r11, DWORD PTR 88[rsp]	# __p4, save_flags
	mov	edi, 110	#,
	call	vmcall	#
# handlers.c:2316: }
	pop	rax	#
	.cfi_def_cfa_offset 56
	pop	rdi	#
	.cfi_def_cfa_offset 48
	pop	r8	#
	.cfi_def_cfa_offset 40
	pop	r9	#
	.cfi_def_cfa_offset 32
	pop	r10	#
	.cfi_def_cfa_offset 24
	pop	r11	#
	.cfi_def_cfa_offset 16
	pop	r12	#
	.cfi_def_cfa_offset 8
	ret
	.cfi_endproc
.LFE198:
	.size	sys_dup3, .-sys_dup3
	.align 16
	.globl	pre_sys_wait4
	.type	pre_sys_wait4, @function
pre_sys_wait4:
.LFB199:
	.cfi_startproc
	push	rdi	#
	.cfi_def_cfa_offset 16
	.cfi_offset 5, -16
	push	rsi	#
	.cfi_def_cfa_offset 24
	.cfi_offset 4, -24
	push	rcx	#
	.cfi_def_cfa_offset 32
	.cfi_offset 2, -32
	push	rdx	#
	.cfi_def_cfa_offset 40
	.cfi_offset 1, -40
	push	rax	#
	.cfi_def_cfa_offset 48
	.cfi_offset 0, -48
# handlers.c:2323:     *skip_call=0;
	mov	rax, QWORD PTR 48[rsp]	# skip_call, skip_call
	mov	QWORD PTR [rax], 0	# *skip_call_2(D),
# handlers.c:2324:     *save_pid=pid;
	mov	rax, QWORD PTR 56[rsp]	# save_pid, save_pid
	mov	DWORD PTR [rax], edi	# *save_pid_4(D), pid
# handlers.c:2325:     *save_stat_addr=stat_addr;
	mov	rax, QWORD PTR 64[rsp]	# save_stat_addr, save_stat_addr
	mov	QWORD PTR [rax], rsi	# *save_stat_addr_7(D), stat_addr
# handlers.c:2326:     *save_options=options;
	mov	rax, QWORD PTR 72[rsp]	# save_options, save_options
	mov	DWORD PTR [rax], edx	# *save_options_10(D), options
# handlers.c:2327:     *save_ru=ru;
	mov	rax, QWORD PTR 80[rsp]	# save_ru, save_ru
	mov	QWORD PTR [rax], rcx	# *save_ru_13(D), ru
# handlers.c:2328: }
	pop	rax	#
	.cfi_def_cfa_offset 40
	pop	rdx	#
	.cfi_def_cfa_offset 32
	pop	rcx	#
	.cfi_def_cfa_offset 24
	pop	rsi	#
	.cfi_def_cfa_offset 16
	pop	rdi	#
	.cfi_def_cfa_offset 8
	ret
	.cfi_endproc
.LFE199:
	.size	pre_sys_wait4, .-pre_sys_wait4
	.align 16
	.globl	sys_wait4
	.type	sys_wait4, @function
sys_wait4:
.LFB200:
	.cfi_startproc
	push	r13	#
	.cfi_def_cfa_offset 16
	.cfi_offset 13, -16
	push	r12	#
	.cfi_def_cfa_offset 24
	.cfi_offset 12, -24
	push	r11	#
	.cfi_def_cfa_offset 32
	.cfi_offset 11, -32
	push	r10	#
	.cfi_def_cfa_offset 40
	.cfi_offset 10, -40
	push	r9	#
	.cfi_def_cfa_offset 48
	.cfi_offset 9, -48
	push	r8	#
	.cfi_def_cfa_offset 56
	.cfi_offset 8, -56
	push	rdi	#
	.cfi_def_cfa_offset 64
	.cfi_offset 5, -64
	push	rax	#
	.cfi_def_cfa_offset 72
	.cfi_offset 0, -72
# handlers.c:2335:     long save_rax = __read_reg("rax");
#APP
# 2335 "handlers.c" 1
	mov r13, rax	# val
	
# 0 "" 2
# handlers.c:2336:     vmcall_6(det_sys_dup2, current_task, save_pid,save_stat_addr,save_options,save_ru,save_rax);
#NO_APP
	mov	r8d, DWORD PTR hypercall_info[rip+11232]	# hypercall_info.OsSpecificFields.CurrentTaskOffset, hypercall_info.OsSpecificFields.CurrentTaskOffset
#APP
# 2336 "handlers.c" 1
	mov r8, gs:[r8]	# ret, hypercall_info.OsSpecificFields.CurrentTaskOffset
# 0 "" 2
#NO_APP
	mov	r9d, DWORD PTR 80[rsp]	# __p2, save_pid
	mov	r10, QWORD PTR 88[rsp]	# __p3, save_stat_addr
	movsx	r11, DWORD PTR 96[rsp]	# __p4, save_options
	mov	r12, QWORD PTR 104[rsp]	# __p5, save_ru
	mov	edi, 110	#,
	call	vmcall	#
# handlers.c:2337: }
	pop	rax	#
	.cfi_def_cfa_offset 64
	pop	rdi	#
	.cfi_def_cfa_offset 56
	pop	r8	#
	.cfi_def_cfa_offset 48
	pop	r9	#
	.cfi_def_cfa_offset 40
	pop	r10	#
	.cfi_def_cfa_offset 32
	pop	r11	#
	.cfi_def_cfa_offset 24
	pop	r12	#
	.cfi_def_cfa_offset 16
	pop	r13	#
	.cfi_def_cfa_offset 8
	ret
	.cfi_endproc
.LFE200:
	.size	sys_wait4, .-sys_wait4
	.align 16
	.globl	pre_sys_waitid
	.type	pre_sys_waitid, @function
pre_sys_waitid:
.LFB201:
	.cfi_startproc
	push	r8	#
	.cfi_def_cfa_offset 16
	.cfi_offset 8, -16
	push	rdi	#
	.cfi_def_cfa_offset 24
	.cfi_offset 5, -24
	push	rsi	#
	.cfi_def_cfa_offset 32
	.cfi_offset 4, -32
	push	rcx	#
	.cfi_def_cfa_offset 40
	.cfi_offset 2, -40
	push	rdx	#
	.cfi_def_cfa_offset 48
	.cfi_offset 1, -48
	push	rax	#
	.cfi_def_cfa_offset 56
	.cfi_offset 0, -56
# handlers.c:2344:     *skip_call=0;
	mov	rax, QWORD PTR 56[rsp]	# skip_call, skip_call
	mov	QWORD PTR [rax], 0	# *skip_call_2(D),
# handlers.c:2345:     *save_which=which;
	mov	rax, QWORD PTR 64[rsp]	# save_which, save_which
	mov	DWORD PTR [rax], edi	# *save_which_4(D), which
# handlers.c:2346:     *save_pid=pid;
	mov	rax, QWORD PTR 72[rsp]	# save_pid, save_pid
	mov	DWORD PTR [rax], esi	# *save_pid_7(D), pid
# handlers.c:2347:     *save_infop=infop;
	mov	rax, QWORD PTR 80[rsp]	# save_infop, save_infop
	mov	QWORD PTR [rax], rdx	# *save_infop_10(D), infop
# handlers.c:2348:     *save_options=options;
	mov	rax, QWORD PTR 88[rsp]	# save_options, save_options
	mov	DWORD PTR [rax], ecx	# *save_options_13(D), options
# handlers.c:2349:     *save_ru=ru;
	mov	rax, QWORD PTR 96[rsp]	# save_ru, save_ru
	mov	QWORD PTR [rax], r8	# *save_ru_16(D), ru
# handlers.c:2350: }
	pop	rax	#
	.cfi_def_cfa_offset 48
	pop	rdx	#
	.cfi_def_cfa_offset 40
	pop	rcx	#
	.cfi_def_cfa_offset 32
	pop	rsi	#
	.cfi_def_cfa_offset 24
	pop	rdi	#
	.cfi_def_cfa_offset 16
	pop	r8	#
	.cfi_def_cfa_offset 8
	ret
	.cfi_endproc
.LFE201:
	.size	pre_sys_waitid, .-pre_sys_waitid
	.align 16
	.globl	sys_waitid
	.type	sys_waitid, @function
sys_waitid:
.LFB202:
	.cfi_startproc
	push	r14	#
	.cfi_def_cfa_offset 16
	.cfi_offset 14, -16
	push	r13	#
	.cfi_def_cfa_offset 24
	.cfi_offset 13, -24
	push	r12	#
	.cfi_def_cfa_offset 32
	.cfi_offset 12, -32
	push	r11	#
	.cfi_def_cfa_offset 40
	.cfi_offset 11, -40
	push	r10	#
	.cfi_def_cfa_offset 48
	.cfi_offset 10, -48
	push	r9	#
	.cfi_def_cfa_offset 56
	.cfi_offset 9, -56
	push	r8	#
	.cfi_def_cfa_offset 64
	.cfi_offset 8, -64
	push	rdi	#
	.cfi_def_cfa_offset 72
	.cfi_offset 5, -72
	push	rax	#
	.cfi_def_cfa_offset 80
	.cfi_offset 0, -80
# handlers.c:2357:     long save_rax = __read_reg("rax");
#APP
# 2357 "handlers.c" 1
	mov r14, rax	# val
	
# 0 "" 2
# handlers.c:2358:     vmcall_7(det_sys_waitid, current_task, save_which,save_pid,save_infop,save_options,save_ru,save_rax);
#NO_APP
	mov	r8d, DWORD PTR hypercall_info[rip+11232]	# hypercall_info.OsSpecificFields.CurrentTaskOffset, hypercall_info.OsSpecificFields.CurrentTaskOffset
#APP
# 2358 "handlers.c" 1
	mov r8, gs:[r8]	# ret, hypercall_info.OsSpecificFields.CurrentTaskOffset
# 0 "" 2
#NO_APP
	movsx	r9, DWORD PTR 88[rsp]	# __p2, save_which
	mov	r10d, DWORD PTR 96[rsp]	# __p3, save_pid
	mov	r11, QWORD PTR 104[rsp]	# __p4, save_infop
	movsx	r12, DWORD PTR 112[rsp]	# __p5, save_options
	mov	r13, QWORD PTR 120[rsp]	# __p6, save_ru
	mov	edi, 113	#,
	call	vmcall	#
# handlers.c:2359: }
	pop	rax	#
	.cfi_def_cfa_offset 72
	pop	rdi	#
	.cfi_def_cfa_offset 64
	pop	r8	#
	.cfi_def_cfa_offset 56
	pop	r9	#
	.cfi_def_cfa_offset 48
	pop	r10	#
	.cfi_def_cfa_offset 40
	pop	r11	#
	.cfi_def_cfa_offset 32
	pop	r12	#
	.cfi_def_cfa_offset 24
	pop	r13	#
	.cfi_def_cfa_offset 16
	pop	r14	#
	.cfi_def_cfa_offset 8
	ret
	.cfi_endproc
.LFE202:
	.size	sys_waitid, .-sys_waitid
	.align 16
	.globl	pre_sys_sched_rr_get_interval
	.type	pre_sys_sched_rr_get_interval, @function
pre_sys_sched_rr_get_interval:
.LFB254:
	.cfi_startproc
	push	rdi	#
	.cfi_def_cfa_offset 16
	.cfi_offset 5, -16
	push	rsi	#
	.cfi_def_cfa_offset 24
	.cfi_offset 4, -24
	push	rax	#
	.cfi_def_cfa_offset 32
	.cfi_offset 0, -32
	mov	rax, QWORD PTR 32[rsp]	# skip_call, skip_call
	mov	QWORD PTR [rax], 0	# *skip_call_8(D),
	mov	rax, QWORD PTR 40[rsp]	# save_pid, save_pid
	mov	DWORD PTR [rax], edi	# *save_pid_9(D), pid
	mov	rax, QWORD PTR 48[rsp]	# save_interval, save_interval
	mov	QWORD PTR [rax], rsi	# *save_interval_10(D), interval
	pop	rax	#
	.cfi_def_cfa_offset 24
	pop	rsi	#
	.cfi_def_cfa_offset 16
	pop	rdi	#
	.cfi_def_cfa_offset 8
	ret
	.cfi_endproc
.LFE254:
	.size	pre_sys_sched_rr_get_interval, .-pre_sys_sched_rr_get_interval
	.align 16
	.globl	sys_sched_rr_get_interval
	.type	sys_sched_rr_get_interval, @function
sys_sched_rr_get_interval:
.LFB204:
	.cfi_startproc
# handlers.c:2376: {
	push	r11	#
	.cfi_def_cfa_offset 16
	.cfi_offset 11, -16
	push	r10	#
	.cfi_def_cfa_offset 24
	.cfi_offset 10, -24
	push	r9	#
	.cfi_def_cfa_offset 32
	.cfi_offset 9, -32
	push	r8	#
	.cfi_def_cfa_offset 40
	.cfi_offset 8, -40
	push	rdi	#
	.cfi_def_cfa_offset 48
	.cfi_offset 5, -48
	push	rax	#
	.cfi_def_cfa_offset 56
	.cfi_offset 0, -56
# handlers.c:2377:     long save_rax = __read_reg("rax");
#APP
# 2377 "handlers.c" 1
	mov r11, rax	# val
	
# 0 "" 2
# handlers.c:2378:     vmcall_4(det_sys_sched_rr_get_interval, current_task, save_pid,save_interval,save_rax);
#NO_APP
	mov	r8d, DWORD PTR hypercall_info[rip+11232]	# hypercall_info.OsSpecificFields.CurrentTaskOffset, hypercall_info.OsSpecificFields.CurrentTaskOffset
#APP
# 2378 "handlers.c" 1
	mov r8, gs:[r8]	# ret, hypercall_info.OsSpecificFields.CurrentTaskOffset
# 0 "" 2
#NO_APP
	mov	r9d, DWORD PTR 64[rsp]	# __p2, save_pid
	mov	r10, QWORD PTR 72[rsp]	# __p3, save_interval
	mov	edi, 115	#,
	call	vmcall	#
# handlers.c:2379: }
	pop	rax	#
	.cfi_def_cfa_offset 48
	pop	rdi	#
	.cfi_def_cfa_offset 40
	pop	r8	#
	.cfi_def_cfa_offset 32
	pop	r9	#
	.cfi_def_cfa_offset 24
	pop	r10	#
	.cfi_def_cfa_offset 16
	pop	r11	#
	.cfi_def_cfa_offset 8
	ret
	.cfi_endproc
.LFE204:
	.size	sys_sched_rr_get_interval, .-sys_sched_rr_get_interval
	.globl	__asm_defines
	.type	__asm_defines, @function
__asm_defines:
.LFB205:
	.cfi_startproc
# handlers.c:2384:     def_detour_asm_vars(commit_creds);
#APP
# 2384 "handlers.c" 1
	#define commit_creds_jmp 96	#
# 0 "" 2
# handlers.c:2385:     def_detour_asm_vars(arch_jump_label_transform);
# 2385 "handlers.c" 1
	#define arch_jump_label_transform_jmp 192	#
# 0 "" 2
# handlers.c:2386:     def_detour_asm_vars(module_param_sysfs_setup);
# 2386 "handlers.c" 1
	#define module_param_sysfs_setup_jmp 288	#
# 0 "" 2
# handlers.c:2387:     def_detour_asm_vars(module_param_sysfs_remove);
# 2387 "handlers.c" 1
	#define module_param_sysfs_remove_jmp 384	#
# 0 "" 2
# handlers.c:2388:     def_detour_asm_vars(wake_up_new_task);
# 2388 "handlers.c" 1
	#define wake_up_new_task_jmp 480	#
# 0 "" 2
# handlers.c:2389:     def_detour_asm_vars(flush_old_exec);
# 2389 "handlers.c" 1
	#define flush_old_exec_jmp 576	#
# 0 "" 2
# handlers.c:2390:     def_detour_asm_vars(begin_new_exec);
# 2390 "handlers.c" 1
	#define begin_new_exec_jmp 672	#
# 0 "" 2
# handlers.c:2391:     def_detour_asm_vars(do_exit);
# 2391 "handlers.c" 1
	#define do_exit_jmp 768	#
# 0 "" 2
# handlers.c:2392:     def_detour_asm_vars(arch_ptrace);
# 2392 "handlers.c" 1
	#define arch_ptrace_jmp 864	#
# 0 "" 2
# handlers.c:2393:     def_detour_asm_vars(compat_arch_ptrace);
# 2393 "handlers.c" 1
	#define compat_arch_ptrace_jmp 960	#
# 0 "" 2
# handlers.c:2394:     def_detour_asm_vars(process_vm_rw_core);
# 2394 "handlers.c" 1
	#define process_vm_rw_core_jmp 1056	#
# 0 "" 2
# handlers.c:2395:     def_detour_asm_vars(__vma_link_rb);
# 2395 "handlers.c" 1
	#define __vma_link_rb_jmp 1152	#
# 0 "" 2
# handlers.c:2396:     def_detour_asm_vars(change_protection);
# 2396 "handlers.c" 1
	#define change_protection_jmp 1248	#
# 0 "" 2
# handlers.c:2397:     def_detour_asm_vars(vma_adjust);
# 2397 "handlers.c" 1
	#define vma_adjust_jmp 1344	#
# 0 "" 2
# handlers.c:2398:     def_detour_asm_vars(__vma_adjust);
# 2398 "handlers.c" 1
	#define __vma_adjust_jmp 1440	#
# 0 "" 2
# handlers.c:2399:     def_detour_asm_vars(vma_rb_erase);
# 2399 "handlers.c" 1
	#define vma_rb_erase_jmp 1536	#
# 0 "" 2
# handlers.c:2400:     def_detour_asm_vars(__vma_rb_erase);
# 2400 "handlers.c" 1
	#define __vma_rb_erase_jmp 1632	#
# 0 "" 2
# handlers.c:2401:     def_detour_asm_vars(expand_downwards);
# 2401 "handlers.c" 1
	#define expand_downwards_jmp 1728	#
# 0 "" 2
# handlers.c:2402:     def_detour_asm_vars(complete_signal);
# 2402 "handlers.c" 1
	#define complete_signal_jmp 1824	#
# 0 "" 2
# handlers.c:2403:     def_detour_asm_vars(text_poke);
# 2403 "handlers.c" 1
	#define text_poke_jmp 1920	#
# 0 "" 2
# handlers.c:2404:     def_detour_asm_vars(__text_poke);
# 2404 "handlers.c" 1
	#define __text_poke_jmp 2016	#
# 0 "" 2
# handlers.c:2405:     def_detour_asm_vars(ftrace_write);
# 2405 "handlers.c" 1
	#define ftrace_write_jmp 2112	#
# 0 "" 2
# handlers.c:2406:     def_detour_asm_vars(panic);
# 2406 "handlers.c" 1
	#define panic_jmp 2208	#
# 0 "" 2
# handlers.c:2407:     def_detour_asm_vars(crash_kexec);
# 2407 "handlers.c" 1
	#define crash_kexec_jmp 2304	#
# 0 "" 2
# handlers.c:2408:     def_detour_asm_vars(__access_remote_vm);
# 2408 "handlers.c" 1
	#define __access_remote_vm_jmp 2400	#
# 0 "" 2
# handlers.c:2410:     def_detour_hijack_asm_vars(mprotect_fixup, vma_wants_writenotify);
# 2410 "handlers.c" 1
	#define mprotect_fixup_vma_wants_writenotify_jmp 2496	#
# 0 "" 2
# handlers.c:2411:     def_detour_hijack_asm_vars(do_munmap, rb_erase);
# 2411 "handlers.c" 1
	#define do_munmap_rb_erase_jmp 2592	#
# 0 "" 2
# handlers.c:2412:     def_detour_hijack_asm_vars(vma_adjust, rb_erase);
# 2412 "handlers.c" 1
	#define vma_adjust_rb_erase_jmp 2688	#
# 0 "" 2
# handlers.c:2414:     def_detour_asm_vars(do_rmdir);
# 2414 "handlers.c" 1
	#define do_rmdir_jmp 2784	#
# 0 "" 2
# handlers.c:2415:     def_detour_asm_vars(sys_sysfs);
# 2415 "handlers.c" 1
	#define sys_sysfs_jmp 2880	#
# 0 "" 2
# handlers.c:2416:     def_detour_asm_vars(sys_read);
# 2416 "handlers.c" 1
	#define sys_read_jmp 2976	#
# 0 "" 2
# handlers.c:2417:     def_detour_asm_vars(sys_getppid);
# 2417 "handlers.c" 1
	#define sys_getppid_jmp 3072	#
# 0 "" 2
# handlers.c:2418:     def_detour_asm_vars(sys_getsid);
# 2418 "handlers.c" 1
	#define sys_getsid_jmp 3168	#
# 0 "" 2
# handlers.c:2419:     def_detour_asm_vars(sys_getuid);
# 2419 "handlers.c" 1
	#define sys_getuid_jmp 3264	#
# 0 "" 2
# handlers.c:2420:     def_detour_asm_vars(sys_geteuid);
# 2420 "handlers.c" 1
	#define sys_geteuid_jmp 3360	#
# 0 "" 2
# handlers.c:2421:     def_detour_asm_vars(sys_shutdown);
# 2421 "handlers.c" 1
	#define sys_shutdown_jmp 3456	#
# 0 "" 2
# handlers.c:2422:     def_detour_asm_vars(do_sysinfo);
# 2422 "handlers.c" 1
	#define do_sysinfo_jmp 3552	#
# 0 "" 2
# handlers.c:2423:     def_detour_asm_vars(sys_capget);
# 2423 "handlers.c" 1
	#define sys_capget_jmp 3648	#
# 0 "" 2
# handlers.c:2424:     def_detour_asm_vars(sys_capset);
# 2424 "handlers.c" 1
	#define sys_capset_jmp 3744	#
# 0 "" 2
# handlers.c:2425:     def_detour_asm_vars(sys_statfs);
# 2425 "handlers.c" 1
	#define sys_statfs_jmp 3840	#
# 0 "" 2
# handlers.c:2426:     def_detour_asm_vars(sys_fstatfs);
# 2426 "handlers.c" 1
	#define sys_fstatfs_jmp 3936	#
# 0 "" 2
# handlers.c:2427:     def_detour_asm_vars(sys_setsid);
# 2427 "handlers.c" 1
	#define sys_setsid_jmp 4032	#
# 0 "" 2
# handlers.c:2428:     def_detour_asm_vars(sys_seccomp);
# 2428 "handlers.c" 1
	#define sys_seccomp_jmp 4128	#
# 0 "" 2
# handlers.c:2429:     def_detour_asm_vars(sys_tgkill);
# 2429 "handlers.c" 1
	#define sys_tgkill_jmp 4224	#
# 0 "" 2
# handlers.c:2430:     def_detour_asm_vars(sys_tkill);
# 2430 "handlers.c" 1
	#define sys_tkill_jmp 4320	#
# 0 "" 2
# handlers.c:2431:     def_detour_asm_vars(sys_ustat);
# 2431 "handlers.c" 1
	#define sys_ustat_jmp 4416	#
# 0 "" 2
# handlers.c:2432:     def_detour_asm_vars(sys_poll);
# 2432 "handlers.c" 1
	#define sys_poll_jmp 4512	#
# 0 "" 2
# handlers.c:2433:     def_detour_asm_vars(sys_sigprocmask);
# 2433 "handlers.c" 1
	#define sys_sigprocmask_jmp 4608	#
# 0 "" 2
# handlers.c:2434:     def_detour_asm_vars(sys_getrlimit);
# 2434 "handlers.c" 1
	#define sys_getrlimit_jmp 4704	#
# 0 "" 2
# handlers.c:2435:     def_detour_asm_vars(sys_umask);
# 2435 "handlers.c" 1
	#define sys_umask_jmp 4800	#
# 0 "" 2
# handlers.c:2436:     def_detour_asm_vars(sys_ioctl);
# 2436 "handlers.c" 1
	#define sys_ioctl_jmp 4896	#
# 0 "" 2
# handlers.c:2437:     def_detour_asm_vars(sys_brk);
# 2437 "handlers.c" 1
	#define sys_brk_jmp 4992	#
# 0 "" 2
# handlers.c:2438:     def_detour_asm_vars(sys_gettimeofday);
# 2438 "handlers.c" 1
	#define sys_gettimeofday_jmp 5088	#
# 0 "" 2
# handlers.c:2439:     def_detour_asm_vars(sys_setresuid);
# 2439 "handlers.c" 1
	#define sys_setresuid_jmp 5184	#
# 0 "" 2
# handlers.c:2440:     def_detour_asm_vars(sys_chdir);
# 2440 "handlers.c" 1
	#define sys_chdir_jmp 5280	#
# 0 "" 2
# handlers.c:2441:     def_detour_asm_vars(sys_alarm);
# 2441 "handlers.c" 1
	#define sys_alarm_jmp 5376	#
# 0 "" 2
# handlers.c:2442:     def_detour_asm_vars(sys_ptrace);
# 2442 "handlers.c" 1
	#define sys_ptrace_jmp 5472	#
# 0 "" 2
# handlers.c:2443:     def_detour_asm_vars(sys_time);
# 2443 "handlers.c" 1
	#define sys_time_jmp 5568	#
# 0 "" 2
# handlers.c:2444:     def_detour_asm_vars(sys_chroot);
# 2444 "handlers.c" 1
	#define sys_chroot_jmp 5664	#
# 0 "" 2
# handlers.c:2445:     def_detour_asm_vars(sys_kill);
# 2445 "handlers.c" 1
	#define sys_kill_jmp 5760	#
# 0 "" 2
# handlers.c:2446:     def_detour_asm_vars(sys_fchdir);
# 2446 "handlers.c" 1
	#define sys_fchdir_jmp 5856	#
# 0 "" 2
# handlers.c:2447:     def_detour_asm_vars(sys_chmod);
# 2447 "handlers.c" 1
	#define sys_chmod_jmp 5952	#
# 0 "" 2
# handlers.c:2448:     def_detour_asm_vars(sys_chown);
# 2448 "handlers.c" 1
	#define sys_chown_jmp 6048	#
# 0 "" 2
# handlers.c:2449:     def_detour_asm_vars(sys_fchmodat);
# 2449 "handlers.c" 1
	#define sys_fchmodat_jmp 6144	#
# 0 "" 2
# handlers.c:2450:     def_detour_asm_vars(sys_fchmod);
# 2450 "handlers.c" 1
	#define sys_fchmod_jmp 6240	#
# 0 "" 2
# handlers.c:2451:     def_detour_asm_vars(sys_fchown);
# 2451 "handlers.c" 1
	#define sys_fchown_jmp 6336	#
# 0 "" 2
# handlers.c:2452:     def_detour_asm_vars(sys_fchownat);
# 2452 "handlers.c" 1
	#define sys_fchownat_jmp 6432	#
# 0 "" 2
# handlers.c:2453:     def_detour_asm_vars(sys_rename);
# 2453 "handlers.c" 1
	#define sys_rename_jmp 6528	#
# 0 "" 2
# handlers.c:2454:     def_detour_asm_vars(sys_renameat2);
# 2454 "handlers.c" 1
	#define sys_renameat2_jmp 6624	#
# 0 "" 2
# handlers.c:2455:     def_detour_asm_vars(sys_renameat);
# 2455 "handlers.c" 1
	#define sys_renameat_jmp 6720	#
# 0 "" 2
# handlers.c:2456:     def_detour_asm_vars(sys_mkdir);
# 2456 "handlers.c" 1
	#define sys_mkdir_jmp 6816	#
# 0 "" 2
# handlers.c:2457:     def_detour_asm_vars(sys_creat);
# 2457 "handlers.c" 1
	#define sys_creat_jmp 6912	#
# 0 "" 2
# handlers.c:2458:     def_detour_asm_vars(sys_openat);
# 2458 "handlers.c" 1
	#define sys_openat_jmp 7008	#
# 0 "" 2
# handlers.c:2459:     def_detour_asm_vars(sys_link);
# 2459 "handlers.c" 1
	#define sys_link_jmp 7104	#
# 0 "" 2
# handlers.c:2460:     def_detour_asm_vars(sys_unlink);
# 2460 "handlers.c" 1
	#define sys_unlink_jmp 7200	#
# 0 "" 2
# handlers.c:2461:     def_detour_asm_vars(sys_unlinkat);
# 2461 "handlers.c" 1
	#define sys_unlinkat_jmp 7296	#
# 0 "" 2
# handlers.c:2462:     def_detour_asm_vars(sys_linkat);
# 2462 "handlers.c" 1
	#define sys_linkat_jmp 7392	#
# 0 "" 2
# handlers.c:2463:     def_detour_asm_vars(sys_symlink);
# 2463 "handlers.c" 1
	#define sys_symlink_jmp 7488	#
# 0 "" 2
# handlers.c:2464:     def_detour_asm_vars(sys_symlinkat);
# 2464 "handlers.c" 1
	#define sys_symlinkat_jmp 7584	#
# 0 "" 2
# handlers.c:2465:     def_detour_asm_vars(sys_access);
# 2465 "handlers.c" 1
	#define sys_access_jmp 7680	#
# 0 "" 2
# handlers.c:2466:     def_detour_asm_vars(sys_fstat);
# 2466 "handlers.c" 1
	#define sys_fstat_jmp 7776	#
# 0 "" 2
# handlers.c:2467:     def_detour_asm_vars(sys_stat);
# 2467 "handlers.c" 1
	#define sys_stat_jmp 7872	#
# 0 "" 2
# handlers.c:2468:     def_detour_asm_vars(sys_lstat);
# 2468 "handlers.c" 1
	#define sys_lstat_jmp 7968	#
# 0 "" 2
# handlers.c:2469:     def_detour_asm_vars(sys_execve);
# 2469 "handlers.c" 1
	#define sys_execve_jmp 8064	#
# 0 "" 2
# handlers.c:2470:     def_detour_asm_vars(sys_execveat);
# 2470 "handlers.c" 1
	#define sys_execveat_jmp 8160	#
# 0 "" 2
# handlers.c:2471:     def_detour_asm_vars(sys_newfstatat);
# 2471 "handlers.c" 1
	#define sys_newfstatat_jmp 8256	#
# 0 "" 2
# handlers.c:2472:     def_detour_asm_vars(sys_pwrite64);
# 2472 "handlers.c" 1
	#define sys_pwrite64_jmp 8352	#
# 0 "" 2
# handlers.c:2473:     def_detour_asm_vars(sys_pread64);
# 2473 "handlers.c" 1
	#define sys_pread64_jmp 8448	#
# 0 "" 2
# handlers.c:2474:     def_detour_asm_vars(sys_mmap_pgoff);
# 2474 "handlers.c" 1
	#define sys_mmap_pgoff_jmp 8544	#
# 0 "" 2
# handlers.c:2475:     def_detour_asm_vars(sys_prctl);
# 2475 "handlers.c" 1
	#define sys_prctl_jmp 8640	#
# 0 "" 2
# handlers.c:2476:     def_detour_asm_vars(do_sigaction);
# 2476 "handlers.c" 1
	#define do_sigaction_jmp 8736	#
# 0 "" 2
# handlers.c:2477:     def_detour_asm_vars(sys_select);
# 2477 "handlers.c" 1
	#define sys_select_jmp 8832	#
# 0 "" 2
# handlers.c:2478:     def_detour_asm_vars(sys_clock_gettime);
# 2478 "handlers.c" 1
	#define sys_clock_gettime_jmp 8928	#
# 0 "" 2
# handlers.c:2479:     def_detour_asm_vars(sys_perf_event_open);
# 2479 "handlers.c" 1
	#define sys_perf_event_open_jmp 9024	#
# 0 "" 2
# handlers.c:2480:     def_detour_asm_vars(sys_newuname);
# 2480 "handlers.c" 1
	#define sys_newuname_jmp 9120	#
# 0 "" 2
# handlers.c:2481:     def_detour_asm_vars(sys_reboot);
# 2481 "handlers.c" 1
	#define sys_reboot_jmp 9216	#
# 0 "" 2
# handlers.c:2482:     def_detour_asm_vars(sys_init_module);
# 2482 "handlers.c" 1
	#define sys_init_module_jmp 9312	#
# 0 "" 2
# handlers.c:2483:     def_detour_asm_vars(sys_delete_module);
# 2483 "handlers.c" 1
	#define sys_delete_module_jmp 9408	#
# 0 "" 2
# handlers.c:2484:     def_detour_asm_vars(sys_finit_module);
# 2484 "handlers.c" 1
	#define sys_finit_module_jmp 9504	#
# 0 "" 2
# handlers.c:2485:     def_detour_asm_vars(sys_write);
# 2485 "handlers.c" 1
	#define sys_write_jmp 9600	#
# 0 "" 2
# handlers.c:2486:     def_detour_asm_vars(do_sys_open);
# 2486 "handlers.c" 1
	#define do_sys_open_jmp 9696	#
# 0 "" 2
# handlers.c:2487:     def_detour_asm_vars(sys_accept);
# 2487 "handlers.c" 1
	#define sys_accept_jmp 9792	#
# 0 "" 2
# handlers.c:2488:     def_detour_asm_vars(sys_accept4);
# 2488 "handlers.c" 1
	#define sys_accept4_jmp 9888	#
# 0 "" 2
# handlers.c:2489:     def_detour_asm_vars(sys_bind);
# 2489 "handlers.c" 1
	#define sys_bind_jmp 9984	#
# 0 "" 2
# handlers.c:2490:     def_detour_asm_vars(sys_connect);
# 2490 "handlers.c" 1
	#define sys_connect_jmp 10080	#
# 0 "" 2
# handlers.c:2491:     def_detour_asm_vars(sys_sendto);
# 2491 "handlers.c" 1
	#define sys_sendto_jmp 10176	#
# 0 "" 2
# handlers.c:2492:     def_detour_asm_vars(sys_sendmsg);
# 2492 "handlers.c" 1
	#define sys_sendmsg_jmp 10272	#
# 0 "" 2
# handlers.c:2493:     def_detour_asm_vars(sys_recvmsg);
# 2493 "handlers.c" 1
	#define sys_recvmsg_jmp 10464	#
# 0 "" 2
# handlers.c:2494:     def_detour_asm_vars(sys_recvfrom);
# 2494 "handlers.c" 1
	#define sys_recvfrom_jmp 10368	#
# 0 "" 2
# handlers.c:2495:     def_detour_asm_vars(sys_close);
# 2495 "handlers.c" 1
	#define sys_close_jmp 10848	#
# 0 "" 2
# handlers.c:2496:     def_detour_asm_vars(sys_dup);
# 2496 "handlers.c" 1
	#define sys_dup_jmp 10560	#
# 0 "" 2
# handlers.c:2497:     def_detour_asm_vars(sys_dup2);
# 2497 "handlers.c" 1
	#define sys_dup2_jmp 10656	#
# 0 "" 2
# handlers.c:2498:     def_detour_asm_vars(sys_dup3);
# 2498 "handlers.c" 1
	#define sys_dup3_jmp 10752	#
# 0 "" 2
# handlers.c:2499:     def_detour_asm_vars(sys_waitid);
# 2499 "handlers.c" 1
	#define sys_waitid_jmp 10944	#
# 0 "" 2
# handlers.c:2500:     def_detour_asm_vars(sys_wait4);
# 2500 "handlers.c" 1
	#define sys_wait4_jmp 11040	#
# 0 "" 2
# handlers.c:2501:     def_detour_asm_vars(sys_sched_rr_get_interval);
# 2501 "handlers.c" 1
	#define sys_sched_rr_get_interval_jmp 11136	#
# 0 "" 2
# handlers.c:2502: }
#NO_APP
	ret
	.cfi_endproc
.LFE205:
	.size	__asm_defines, .-__asm_defines
	.globl	hypercall_info
	.section	.detours,"aw",@progbits
	.align 32
	.type	hypercall_info, @object
	.size	hypercall_info, 11256
hypercall_info:
# DetoursCount:
	.zero	8
	.quad	116
# Detours:
# Name:
	.string	"commit_creds"
	.zero	19
# HijackName:
	.byte	0
	.zero	31
# Address:
	.quad	commit_creds_trampoline
# RelocatedCode:
	.quad	commit_creds_reloc
	.zero	16
# Name:
	.string	"arch_jump_label_transform"
	.zero	6
# HijackName:
	.byte	0
	.zero	31
# Address:
	.quad	arch_jump_label_transform_trampoline
# RelocatedCode:
	.quad	arch_jump_label_transform_reloc
	.zero	16
# Name:
	.string	"module_param_sysfs_setup"
	.zero	7
# HijackName:
	.byte	0
	.zero	31
# Address:
	.quad	module_param_sysfs_setup_trampoline
# RelocatedCode:
	.quad	module_param_sysfs_setup_reloc
	.zero	16
# Name:
	.string	"module_param_sysfs_remove"
	.zero	6
# HijackName:
	.byte	0
	.zero	31
# Address:
	.quad	module_param_sysfs_remove_trampoline
# RelocatedCode:
	.quad	module_param_sysfs_remove_reloc
	.zero	16
# Name:
	.string	"wake_up_new_task"
	.zero	15
# HijackName:
	.byte	0
	.zero	31
# Address:
	.quad	wake_up_new_task_trampoline
# RelocatedCode:
	.quad	wake_up_new_task_reloc
	.zero	16
# Name:
	.string	"flush_old_exec"
	.zero	17
# HijackName:
	.byte	0
	.zero	31
# Address:
	.quad	flush_old_exec_trampoline
# RelocatedCode:
	.quad	flush_old_exec_reloc
	.zero	16
# Name:
	.string	"begin_new_exec"
	.zero	17
# HijackName:
	.byte	0
	.zero	31
# Address:
	.quad	begin_new_exec_trampoline
# RelocatedCode:
	.quad	begin_new_exec_reloc
	.zero	16
# Name:
	.string	"do_exit"
	.zero	24
# HijackName:
	.byte	0
	.zero	31
# Address:
	.quad	do_exit_trampoline
# RelocatedCode:
	.quad	do_exit_reloc
	.zero	16
# Name:
	.string	"arch_ptrace"
	.zero	20
# HijackName:
	.byte	0
	.zero	31
# Address:
	.quad	arch_ptrace_trampoline
# RelocatedCode:
	.quad	arch_ptrace_reloc
	.zero	16
# Name:
	.string	"compat_arch_ptrace"
	.zero	13
# HijackName:
	.byte	0
	.zero	31
# Address:
	.quad	compat_arch_ptrace_trampoline
# RelocatedCode:
	.quad	compat_arch_ptrace_reloc
	.zero	16
# Name:
	.string	"process_vm_rw_core"
	.zero	13
# HijackName:
	.byte	0
	.zero	31
# Address:
	.quad	process_vm_rw_core_trampoline
# RelocatedCode:
	.quad	process_vm_rw_core_reloc
	.zero	16
# Name:
	.string	"__vma_link_rb"
	.zero	18
# HijackName:
	.byte	0
	.zero	31
# Address:
	.quad	__vma_link_rb_trampoline
# RelocatedCode:
	.quad	__vma_link_rb_reloc
	.zero	16
# Name:
	.string	"change_protection"
	.zero	14
# HijackName:
	.byte	0
	.zero	31
# Address:
	.quad	change_protection_trampoline
# RelocatedCode:
	.quad	change_protection_reloc
	.zero	16
# Name:
	.string	"vma_adjust"
	.zero	21
# HijackName:
	.byte	0
	.zero	31
# Address:
	.quad	vma_adjust_trampoline
# RelocatedCode:
	.quad	vma_adjust_reloc
	.zero	16
# Name:
	.string	"__vma_adjust"
	.zero	19
# HijackName:
	.byte	0
	.zero	31
# Address:
	.quad	__vma_adjust_trampoline
# RelocatedCode:
	.quad	__vma_adjust_reloc
	.zero	16
# Name:
	.string	"vma_rb_erase"
	.zero	19
# HijackName:
	.byte	0
	.zero	31
# Address:
	.quad	vma_rb_erase_trampoline
# RelocatedCode:
	.quad	vma_rb_erase_reloc
	.zero	16
# Name:
	.string	"__vma_rb_erase"
	.zero	17
# HijackName:
	.byte	0
	.zero	31
# Address:
	.quad	__vma_rb_erase_trampoline
# RelocatedCode:
	.quad	__vma_rb_erase_reloc
	.zero	16
# Name:
	.string	"expand_downwards"
	.zero	15
# HijackName:
	.byte	0
	.zero	31
# Address:
	.quad	expand_downwards_trampoline
# RelocatedCode:
	.quad	expand_downwards_reloc
	.zero	16
# Name:
	.string	"complete_signal"
	.zero	16
# HijackName:
	.byte	0
	.zero	31
# Address:
	.quad	complete_signal_trampoline
# RelocatedCode:
	.quad	complete_signal_reloc
	.zero	16
# Name:
	.string	"text_poke"
	.zero	22
# HijackName:
	.byte	0
	.zero	31
# Address:
	.quad	text_poke_trampoline
# RelocatedCode:
	.quad	text_poke_reloc
	.zero	16
# Name:
	.string	"__text_poke"
	.zero	20
# HijackName:
	.byte	0
	.zero	31
# Address:
	.quad	__text_poke_trampoline
# RelocatedCode:
	.quad	__text_poke_reloc
	.zero	16
# Name:
	.string	"ftrace_write"
	.zero	19
# HijackName:
	.byte	0
	.zero	31
# Address:
	.quad	ftrace_write_trampoline
# RelocatedCode:
	.quad	ftrace_write_reloc
	.zero	16
# Name:
	.string	"panic"
	.zero	26
# HijackName:
	.byte	0
	.zero	31
# Address:
	.quad	panic_trampoline
# RelocatedCode:
	.quad	panic_reloc
	.zero	16
# Name:
	.string	"crash_kexec"
	.zero	20
# HijackName:
	.byte	0
	.zero	31
# Address:
	.quad	crash_kexec_trampoline
# RelocatedCode:
	.quad	crash_kexec_reloc
	.zero	16
# Name:
	.string	"__access_remote_vm"
	.zero	13
# HijackName:
	.byte	0
	.zero	31
# Address:
	.quad	__access_remote_vm_trampoline
# RelocatedCode:
	.quad	__access_remote_vm_reloc
	.zero	16
# Name:
	.string	"mprotect_fixup"
	.zero	17
# HijackName:
	.string	"vma_wants_writenotify"
	.zero	10
# Address:
	.quad	mprotect_fixup_vma_wants_writenotify_trampoline
# RelocatedCode:
	.quad	mprotect_fixup_vma_wants_writenotify_reloc
	.zero	16
# Name:
	.string	"do_munmap"
	.zero	22
# HijackName:
	.string	"rb_erase"
	.zero	23
# Address:
	.quad	do_munmap_rb_erase_trampoline
# RelocatedCode:
	.quad	do_munmap_rb_erase_reloc
	.zero	16
# Name:
	.string	"vma_adjust"
	.zero	21
# HijackName:
	.string	"rb_erase"
	.zero	23
# Address:
	.quad	vma_adjust_rb_erase_trampoline
# RelocatedCode:
	.quad	vma_adjust_rb_erase_reloc
	.zero	16
# Name:
	.string	"do_rmdir"
	.zero	23
# HijackName:
	.byte	0
	.zero	31
# Address:
	.quad	do_rmdir_trampoline
# RelocatedCode:
	.quad	do_rmdir_reloc
	.zero	16
# Name:
	.string	"sys_sysfs"
	.zero	22
# HijackName:
	.byte	0
	.zero	31
# Address:
	.quad	sys_sysfs_trampoline
# RelocatedCode:
	.quad	sys_sysfs_reloc
	.zero	16
# Name:
	.string	"sys_read"
	.zero	23
# HijackName:
	.byte	0
	.zero	31
# Address:
	.quad	sys_read_trampoline
# RelocatedCode:
	.quad	sys_read_reloc
	.zero	16
# Name:
	.string	"sys_getppid"
	.zero	20
# HijackName:
	.byte	0
	.zero	31
# Address:
	.quad	sys_getppid_trampoline
# RelocatedCode:
	.quad	sys_getppid_reloc
	.zero	16
# Name:
	.string	"sys_getsid"
	.zero	21
# HijackName:
	.byte	0
	.zero	31
# Address:
	.quad	sys_getsid_trampoline
# RelocatedCode:
	.quad	sys_getsid_reloc
	.zero	16
# Name:
	.string	"sys_getuid"
	.zero	21
# HijackName:
	.byte	0
	.zero	31
# Address:
	.quad	sys_getuid_trampoline
# RelocatedCode:
	.quad	sys_getuid_reloc
	.zero	16
# Name:
	.string	"sys_geteuid"
	.zero	20
# HijackName:
	.byte	0
	.zero	31
# Address:
	.quad	sys_geteuid_trampoline
# RelocatedCode:
	.quad	sys_geteuid_reloc
	.zero	16
# Name:
	.string	"sys_shutdown"
	.zero	19
# HijackName:
	.byte	0
	.zero	31
# Address:
	.quad	sys_shutdown_trampoline
# RelocatedCode:
	.quad	sys_shutdown_reloc
	.zero	16
# Name:
	.string	"do_sysinfo"
	.zero	21
# HijackName:
	.byte	0
	.zero	31
# Address:
	.quad	do_sysinfo_trampoline
# RelocatedCode:
	.quad	do_sysinfo_reloc
	.zero	16
# Name:
	.string	"sys_capget"
	.zero	21
# HijackName:
	.byte	0
	.zero	31
# Address:
	.quad	sys_capget_trampoline
# RelocatedCode:
	.quad	sys_capget_reloc
	.zero	16
# Name:
	.string	"sys_capset"
	.zero	21
# HijackName:
	.byte	0
	.zero	31
# Address:
	.quad	sys_capset_trampoline
# RelocatedCode:
	.quad	sys_capset_reloc
	.zero	16
# Name:
	.string	"sys_statfs"
	.zero	21
# HijackName:
	.byte	0
	.zero	31
# Address:
	.quad	sys_statfs_trampoline
# RelocatedCode:
	.quad	sys_statfs_reloc
	.zero	16
# Name:
	.string	"sys_fstatfs"
	.zero	20
# HijackName:
	.byte	0
	.zero	31
# Address:
	.quad	sys_fstatfs_trampoline
# RelocatedCode:
	.quad	sys_fstatfs_reloc
	.zero	16
# Name:
	.string	"sys_setsid"
	.zero	21
# HijackName:
	.byte	0
	.zero	31
# Address:
	.quad	sys_setsid_trampoline
# RelocatedCode:
	.quad	sys_setsid_reloc
	.zero	16
# Name:
	.string	"sys_seccomp"
	.zero	20
# HijackName:
	.byte	0
	.zero	31
# Address:
	.quad	sys_seccomp_trampoline
# RelocatedCode:
	.quad	sys_seccomp_reloc
	.zero	16
# Name:
	.string	"sys_tgkill"
	.zero	21
# HijackName:
	.byte	0
	.zero	31
# Address:
	.quad	sys_tgkill_trampoline
# RelocatedCode:
	.quad	sys_tgkill_reloc
	.zero	16
# Name:
	.string	"sys_tkill"
	.zero	22
# HijackName:
	.byte	0
	.zero	31
# Address:
	.quad	sys_tkill_trampoline
# RelocatedCode:
	.quad	sys_tkill_reloc
	.zero	16
# Name:
	.string	"sys_ustat"
	.zero	22
# HijackName:
	.byte	0
	.zero	31
# Address:
	.quad	sys_ustat_trampoline
# RelocatedCode:
	.quad	sys_ustat_reloc
	.zero	16
# Name:
	.string	"sys_poll"
	.zero	23
# HijackName:
	.byte	0
	.zero	31
# Address:
	.quad	sys_poll_trampoline
# RelocatedCode:
	.quad	sys_poll_reloc
	.zero	16
# Name:
	.string	"sys_sigprocmask"
	.zero	16
# HijackName:
	.byte	0
	.zero	31
# Address:
	.quad	sys_sigprocmask_trampoline
# RelocatedCode:
	.quad	sys_sigprocmask_reloc
	.zero	16
# Name:
	.string	"sys_getrlimit"
	.zero	18
# HijackName:
	.byte	0
	.zero	31
# Address:
	.quad	sys_getrlimit_trampoline
# RelocatedCode:
	.quad	sys_getrlimit_reloc
	.zero	16
# Name:
	.string	"sys_umask"
	.zero	22
# HijackName:
	.byte	0
	.zero	31
# Address:
	.quad	sys_umask_trampoline
# RelocatedCode:
	.quad	sys_umask_reloc
	.zero	16
# Name:
	.string	"sys_ioctl"
	.zero	22
# HijackName:
	.byte	0
	.zero	31
# Address:
	.quad	sys_ioctl_trampoline
# RelocatedCode:
	.quad	sys_ioctl_reloc
	.zero	16
# Name:
	.string	"sys_brk"
	.zero	24
# HijackName:
	.byte	0
	.zero	31
# Address:
	.quad	sys_brk_trampoline
# RelocatedCode:
	.quad	sys_brk_reloc
	.zero	16
# Name:
	.string	"sys_gettimeofday"
	.zero	15
# HijackName:
	.byte	0
	.zero	31
# Address:
	.quad	sys_gettimeofday_trampoline
# RelocatedCode:
	.quad	sys_gettimeofday_reloc
	.zero	16
# Name:
	.string	"sys_setresuid"
	.zero	18
# HijackName:
	.byte	0
	.zero	31
# Address:
	.quad	sys_setresuid_trampoline
# RelocatedCode:
	.quad	sys_setresuid_reloc
	.zero	16
# Name:
	.string	"sys_chdir"
	.zero	22
# HijackName:
	.byte	0
	.zero	31
# Address:
	.quad	sys_chdir_trampoline
# RelocatedCode:
	.quad	sys_chdir_reloc
	.zero	16
# Name:
	.string	"sys_alarm"
	.zero	22
# HijackName:
	.byte	0
	.zero	31
# Address:
	.quad	sys_alarm_trampoline
# RelocatedCode:
	.quad	sys_alarm_reloc
	.zero	16
# Name:
	.string	"sys_ptrace"
	.zero	21
# HijackName:
	.byte	0
	.zero	31
# Address:
	.quad	sys_ptrace_trampoline
# RelocatedCode:
	.quad	sys_ptrace_reloc
	.zero	16
# Name:
	.string	"sys_time"
	.zero	23
# HijackName:
	.byte	0
	.zero	31
# Address:
	.quad	sys_time_trampoline
# RelocatedCode:
	.quad	sys_time_reloc
	.zero	16
# Name:
	.string	"sys_chroot"
	.zero	21
# HijackName:
	.byte	0
	.zero	31
# Address:
	.quad	sys_chroot_trampoline
# RelocatedCode:
	.quad	sys_chroot_reloc
	.zero	16
# Name:
	.string	"sys_kill"
	.zero	23
# HijackName:
	.byte	0
	.zero	31
# Address:
	.quad	sys_kill_trampoline
# RelocatedCode:
	.quad	sys_kill_reloc
	.zero	16
# Name:
	.string	"sys_fchdir"
	.zero	21
# HijackName:
	.byte	0
	.zero	31
# Address:
	.quad	sys_fchdir_trampoline
# RelocatedCode:
	.quad	sys_fchdir_reloc
	.zero	16
# Name:
	.string	"sys_chmod"
	.zero	22
# HijackName:
	.byte	0
	.zero	31
# Address:
	.quad	sys_chmod_trampoline
# RelocatedCode:
	.quad	sys_chmod_reloc
	.zero	16
# Name:
	.string	"sys_chown"
	.zero	22
# HijackName:
	.byte	0
	.zero	31
# Address:
	.quad	sys_chown_trampoline
# RelocatedCode:
	.quad	sys_chown_reloc
	.zero	16
# Name:
	.string	"sys_fchmodat"
	.zero	19
# HijackName:
	.byte	0
	.zero	31
# Address:
	.quad	sys_fchmodat_trampoline
# RelocatedCode:
	.quad	sys_fchmodat_reloc
	.zero	16
# Name:
	.string	"sys_fchmod"
	.zero	21
# HijackName:
	.byte	0
	.zero	31
# Address:
	.quad	sys_fchmod_trampoline
# RelocatedCode:
	.quad	sys_fchmod_reloc
	.zero	16
# Name:
	.string	"sys_fchown"
	.zero	21
# HijackName:
	.byte	0
	.zero	31
# Address:
	.quad	sys_fchown_trampoline
# RelocatedCode:
	.quad	sys_fchown_reloc
	.zero	16
# Name:
	.string	"sys_fchownat"
	.zero	19
# HijackName:
	.byte	0
	.zero	31
# Address:
	.quad	sys_fchownat_trampoline
# RelocatedCode:
	.quad	sys_fchownat_reloc
	.zero	16
# Name:
	.string	"sys_rename"
	.zero	21
# HijackName:
	.byte	0
	.zero	31
# Address:
	.quad	sys_rename_trampoline
# RelocatedCode:
	.quad	sys_rename_reloc
	.zero	16
# Name:
	.string	"sys_renameat2"
	.zero	18
# HijackName:
	.byte	0
	.zero	31
# Address:
	.quad	sys_renameat2_trampoline
# RelocatedCode:
	.quad	sys_renameat2_reloc
	.zero	16
# Name:
	.string	"sys_renameat"
	.zero	19
# HijackName:
	.byte	0
	.zero	31
# Address:
	.quad	sys_renameat_trampoline
# RelocatedCode:
	.quad	sys_renameat_reloc
	.zero	16
# Name:
	.string	"sys_mkdir"
	.zero	22
# HijackName:
	.byte	0
	.zero	31
# Address:
	.quad	sys_mkdir_trampoline
# RelocatedCode:
	.quad	sys_mkdir_reloc
	.zero	16
# Name:
	.string	"sys_creat"
	.zero	22
# HijackName:
	.byte	0
	.zero	31
# Address:
	.quad	sys_creat_trampoline
# RelocatedCode:
	.quad	sys_creat_reloc
	.zero	16
# Name:
	.string	"sys_openat"
	.zero	21
# HijackName:
	.byte	0
	.zero	31
# Address:
	.quad	sys_openat_trampoline
# RelocatedCode:
	.quad	sys_openat_reloc
	.zero	16
# Name:
	.string	"sys_link"
	.zero	23
# HijackName:
	.byte	0
	.zero	31
# Address:
	.quad	sys_link_trampoline
# RelocatedCode:
	.quad	sys_link_reloc
	.zero	16
# Name:
	.string	"sys_unlink"
	.zero	21
# HijackName:
	.byte	0
	.zero	31
# Address:
	.quad	sys_unlink_trampoline
# RelocatedCode:
	.quad	sys_unlink_reloc
	.zero	16
# Name:
	.string	"sys_unlinkat"
	.zero	19
# HijackName:
	.byte	0
	.zero	31
# Address:
	.quad	sys_unlinkat_trampoline
# RelocatedCode:
	.quad	sys_unlinkat_reloc
	.zero	16
# Name:
	.string	"sys_linkat"
	.zero	21
# HijackName:
	.byte	0
	.zero	31
# Address:
	.quad	sys_linkat_trampoline
# RelocatedCode:
	.quad	sys_linkat_reloc
	.zero	16
# Name:
	.string	"sys_symlink"
	.zero	20
# HijackName:
	.byte	0
	.zero	31
# Address:
	.quad	sys_symlink_trampoline
# RelocatedCode:
	.quad	sys_symlink_reloc
	.zero	16
# Name:
	.string	"sys_symlinkat"
	.zero	18
# HijackName:
	.byte	0
	.zero	31
# Address:
	.quad	sys_symlinkat_trampoline
# RelocatedCode:
	.quad	sys_symlinkat_reloc
	.zero	16
# Name:
	.string	"sys_access"
	.zero	21
# HijackName:
	.byte	0
	.zero	31
# Address:
	.quad	sys_access_trampoline
# RelocatedCode:
	.quad	sys_access_reloc
	.zero	16
# Name:
	.string	"sys_fstat"
	.zero	22
# HijackName:
	.byte	0
	.zero	31
# Address:
	.quad	sys_fstat_trampoline
# RelocatedCode:
	.quad	sys_fstat_reloc
	.zero	16
# Name:
	.string	"sys_stat"
	.zero	23
# HijackName:
	.byte	0
	.zero	31
# Address:
	.quad	sys_stat_trampoline
# RelocatedCode:
	.quad	sys_stat_reloc
	.zero	16
# Name:
	.string	"sys_lstat"
	.zero	22
# HijackName:
	.byte	0
	.zero	31
# Address:
	.quad	sys_lstat_trampoline
# RelocatedCode:
	.quad	sys_lstat_reloc
	.zero	16
# Name:
	.string	"sys_execve"
	.zero	21
# HijackName:
	.byte	0
	.zero	31
# Address:
	.quad	sys_execve_trampoline
# RelocatedCode:
	.quad	sys_execve_reloc
	.zero	16
# Name:
	.string	"sys_execveat"
	.zero	19
# HijackName:
	.byte	0
	.zero	31
# Address:
	.quad	sys_execveat_trampoline
# RelocatedCode:
	.quad	sys_execveat_reloc
	.zero	16
# Name:
	.string	"sys_newfstatat"
	.zero	17
# HijackName:
	.byte	0
	.zero	31
# Address:
	.quad	sys_newfstatat_trampoline
# RelocatedCode:
	.quad	sys_newfstatat_reloc
	.zero	16
# Name:
	.string	"sys_pwrite64"
	.zero	19
# HijackName:
	.byte	0
	.zero	31
# Address:
	.quad	sys_pwrite64_trampoline
# RelocatedCode:
	.quad	sys_pwrite64_reloc
	.zero	16
# Name:
	.string	"sys_pread64"
	.zero	20
# HijackName:
	.byte	0
	.zero	31
# Address:
	.quad	sys_pread64_trampoline
# RelocatedCode:
	.quad	sys_pread64_reloc
	.zero	16
# Name:
	.string	"sys_mmap_pgoff"
	.zero	17
# HijackName:
	.byte	0
	.zero	31
# Address:
	.quad	sys_mmap_pgoff_trampoline
# RelocatedCode:
	.quad	sys_mmap_pgoff_reloc
	.zero	16
# Name:
	.string	"sys_prctl"
	.zero	22
# HijackName:
	.byte	0
	.zero	31
# Address:
	.quad	sys_prctl_trampoline
# RelocatedCode:
	.quad	sys_prctl_reloc
	.zero	16
# Name:
	.string	"do_sigaction"
	.zero	19
# HijackName:
	.byte	0
	.zero	31
# Address:
	.quad	do_sigaction_trampoline
# RelocatedCode:
	.quad	do_sigaction_reloc
	.zero	16
# Name:
	.string	"sys_select"
	.zero	21
# HijackName:
	.byte	0
	.zero	31
# Address:
	.quad	sys_select_trampoline
# RelocatedCode:
	.quad	sys_select_reloc
	.zero	16
# Name:
	.string	"sys_clock_gettime"
	.zero	14
# HijackName:
	.byte	0
	.zero	31
# Address:
	.quad	sys_clock_gettime_trampoline
# RelocatedCode:
	.quad	sys_clock_gettime_reloc
	.zero	16
# Name:
	.string	"sys_perf_event_open"
	.zero	12
# HijackName:
	.byte	0
	.zero	31
# Address:
	.quad	sys_perf_event_open_trampoline
# RelocatedCode:
	.quad	sys_perf_event_open_reloc
	.zero	16
# Name:
	.string	"sys_newuname"
	.zero	19
# HijackName:
	.byte	0
	.zero	31
# Address:
	.quad	sys_newuname_trampoline
# RelocatedCode:
	.quad	sys_newuname_reloc
	.zero	16
# Name:
	.string	"sys_reboot"
	.zero	21
# HijackName:
	.byte	0
	.zero	31
# Address:
	.quad	sys_reboot_trampoline
# RelocatedCode:
	.quad	sys_reboot_reloc
	.zero	16
# Name:
	.string	"sys_init_module"
	.zero	16
# HijackName:
	.byte	0
	.zero	31
# Address:
	.quad	sys_init_module_trampoline
# RelocatedCode:
	.quad	sys_init_module_reloc
	.zero	16
# Name:
	.string	"sys_delete_module"
	.zero	14
# HijackName:
	.byte	0
	.zero	31
# Address:
	.quad	sys_delete_module_trampoline
# RelocatedCode:
	.quad	sys_delete_module_reloc
	.zero	16
# Name:
	.string	"sys_finit_module"
	.zero	15
# HijackName:
	.byte	0
	.zero	31
# Address:
	.quad	sys_finit_module_trampoline
# RelocatedCode:
	.quad	sys_finit_module_reloc
	.zero	16
# Name:
	.string	"sys_write"
	.zero	22
# HijackName:
	.byte	0
	.zero	31
# Address:
	.quad	sys_write_trampoline
# RelocatedCode:
	.quad	sys_write_reloc
	.zero	16
# Name:
	.string	"do_sys_open"
	.zero	20
# HijackName:
	.byte	0
	.zero	31
# Address:
	.quad	do_sys_open_trampoline
# RelocatedCode:
	.quad	do_sys_open_reloc
	.zero	16
# Name:
	.string	"sys_accept"
	.zero	21
# HijackName:
	.byte	0
	.zero	31
# Address:
	.quad	sys_accept_trampoline
# RelocatedCode:
	.quad	sys_accept_reloc
	.zero	16
# Name:
	.string	"sys_accept4"
	.zero	20
# HijackName:
	.byte	0
	.zero	31
# Address:
	.quad	sys_accept4_trampoline
# RelocatedCode:
	.quad	sys_accept4_reloc
	.zero	16
# Name:
	.string	"sys_bind"
	.zero	23
# HijackName:
	.byte	0
	.zero	31
# Address:
	.quad	sys_bind_trampoline
# RelocatedCode:
	.quad	sys_bind_reloc
	.zero	16
# Name:
	.string	"sys_connect"
	.zero	20
# HijackName:
	.byte	0
	.zero	31
# Address:
	.quad	sys_connect_trampoline
# RelocatedCode:
	.quad	sys_connect_reloc
	.zero	16
# Name:
	.string	"sys_sendto"
	.zero	21
# HijackName:
	.byte	0
	.zero	31
# Address:
	.quad	sys_sendto_trampoline
# RelocatedCode:
	.quad	sys_sendto_reloc
	.zero	16
# Name:
	.string	"sys_sendmsg"
	.zero	20
# HijackName:
	.byte	0
	.zero	31
# Address:
	.quad	sys_sendmsg_trampoline
# RelocatedCode:
	.quad	sys_sendmsg_reloc
	.zero	16
# Name:
	.string	"sys_recvfrom"
	.zero	19
# HijackName:
	.byte	0
	.zero	31
# Address:
	.quad	sys_recvfrom_trampoline
# RelocatedCode:
	.quad	sys_recvfrom_reloc
	.zero	16
# Name:
	.string	"sys_recvmsg"
	.zero	20
# HijackName:
	.byte	0
	.zero	31
# Address:
	.quad	sys_recvmsg_trampoline
# RelocatedCode:
	.quad	sys_recvmsg_reloc
	.zero	16
# Name:
	.string	"sys_dup"
	.zero	24
# HijackName:
	.byte	0
	.zero	31
# Address:
	.quad	sys_dup_trampoline
# RelocatedCode:
	.quad	sys_dup_reloc
	.zero	16
# Name:
	.string	"sys_dup2"
	.zero	23
# HijackName:
	.byte	0
	.zero	31
# Address:
	.quad	sys_dup2_trampoline
# RelocatedCode:
	.quad	sys_dup2_reloc
	.zero	16
# Name:
	.string	"sys_dup3"
	.zero	23
# HijackName:
	.byte	0
	.zero	31
# Address:
	.quad	sys_dup3_trampoline
# RelocatedCode:
	.quad	sys_dup3_reloc
	.zero	16
# Name:
	.string	"sys_close"
	.zero	22
# HijackName:
	.byte	0
	.zero	31
# Address:
	.quad	sys_close_trampoline
# RelocatedCode:
	.quad	sys_close_reloc
	.zero	16
# Name:
	.string	"sys_waitid"
	.zero	21
# HijackName:
	.byte	0
	.zero	31
# Address:
	.quad	sys_waitid_trampoline
# RelocatedCode:
	.quad	sys_waitid_reloc
	.zero	16
# Name:
	.string	"sys_wait4"
	.zero	22
# HijackName:
	.byte	0
	.zero	31
# Address:
	.quad	sys_wait4_trampoline
# RelocatedCode:
	.quad	sys_wait4_reloc
	.zero	16
# Name:
	.string	"sys_sched_rr_get_interval"
	.zero	6
# HijackName:
	.byte	0
	.zero	31
# Address:
	.quad	sys_sched_rr_get_interval_trampoline
# RelocatedCode:
	.quad	sys_sched_rr_get_interval_reloc
	.zero	16
	.zero	104
	.ident	"GCC: (Ubuntu 7.5.0-3ubuntu1~18.04) 7.5.0"
	.section	.note.GNU-stack,"",@progbits
